Component: Arm Compiler for Embedded 6.23 Tool: armlink [5f102400]

==============================================================================

Section Cross References

    hal_entry_1.o(.text.sci_i2c_master_callback) refers to hal_entry_1.o(.bss.g_i2c_aborted) for g_i2c_aborted
    hal_entry_1.o(.text.sci_i2c_master_callback) refers to hal_entry_1.o(.bss.g_i2c_completed) for g_i2c_completed
    hal_entry_1.o(.ARM.exidx.text.sci_i2c_master_callback) refers to hal_entry_1.o(.text.sci_i2c_master_callback) for [Anonymous Symbol]
    hal_entry_1.o(.text.uart2_callback) refers to driver_uart_1.o(.data.UartSensor) for UartSensor
    hal_entry_1.o(.ARM.exidx.text.uart2_callback) refers to hal_entry_1.o(.text.uart2_callback) for [Anonymous Symbol]
    hal_entry_1.o(.text.uart4_callback) refers to driver_uart_1.o(.data.UartHmi) for UartHmi
    hal_entry_1.o(.ARM.exidx.text.uart4_callback) refers to hal_entry_1.o(.text.uart4_callback) for [Anonymous Symbol]
    hal_entry_1.o(.text.uart7_callback) refers to driver_uart_1.o(.data.UartPc) for UartPc
    hal_entry_1.o(.ARM.exidx.text.uart7_callback) refers to hal_entry_1.o(.text.uart7_callback) for [Anonymous Symbol]
    hal_entry_1.o(.text.uart9_callback) refers to driver_uart_1.o(.data.UartFace) for UartFace
    hal_entry_1.o(.ARM.exidx.text.uart9_callback) refers to hal_entry_1.o(.text.uart9_callback) for [Anonymous Symbol]
    hal_entry_1.o(.text.uart8_callback) refers to driver_uart_1.o(.data.Uart8) for Uart8
    hal_entry_1.o(.ARM.exidx.text.uart8_callback) refers to hal_entry_1.o(.text.uart8_callback) for [Anonymous Symbol]
    hal_entry_1.o(.text.hal_entry) refers to driver_uart_1.o(.data.UartSensor) for UartSensor
    hal_entry_1.o(.text.hal_entry) refers to driver_uart_1.o(.text.Uart_Init) for Uart_Init
    hal_entry_1.o(.text.hal_entry) refers to driver_uart_1.o(.data.UartHmi) for UartHmi
    hal_entry_1.o(.text.hal_entry) refers to driver_uart_1.o(.data.UartPc) for UartPc
    hal_entry_1.o(.text.hal_entry) refers to driver_uart_1.o(.data.UartFace) for UartFace
    hal_entry_1.o(.text.hal_entry) refers to driver_uart_1.o(.data.Uart8) for Uart8
    hal_entry_1.o(.text.hal_entry) refers to driver_uart_1.o(.text.Uart_StartRx) for Uart_StartRx
    hal_entry_1.o(.text.hal_entry) refers to hal_data.o(.rodata.g_i2c5) for g_i2c5
    hal_entry_1.o(.text.hal_entry) refers to hal_entry_1.o(.bss.g_bh1750) for g_bh1750
    hal_entry_1.o(.text.hal_entry) refers to driver_bh1750_1.o(.text.Bh1750_Init) for Bh1750_Init
    hal_entry_1.o(.text.hal_entry) refers to driver_uart_1.o(.text.Uart_Printf) for Uart_Printf
    hal_entry_1.o(.text.hal_entry) refers to bsp_delay.o(.text.R_BSP_SoftwareDelay) for R_BSP_SoftwareDelay
    hal_entry_1.o(.text.hal_entry) refers to hal_entry_1.o(.bss.Task_DHT22.dht22_read_tick) for Task_DHT22.dht22_read_tick
    hal_entry_1.o(.text.hal_entry) refers to hal_entry_1.o(.bss.Task_HMI.hmi_rx_idx) for Task_HMI.hmi_rx_idx
    hal_entry_1.o(.text.hal_entry) refers to hal_entry_1.o(.bss.Task_HMI.hmi_rx_frame) for Task_HMI.hmi_rx_frame
    hal_entry_1.o(.text.hal_entry) refers to hal_entry_1.o(.bss.Task_Uart8.rx_idle_tick) for Task_Uart8.rx_idle_tick
    hal_entry_1.o(.text.hal_entry) refers to hal_entry_1.o(.bss.Task_Light.light_tick) for Task_Light.light_tick
    hal_entry_1.o(.text.hal_entry) refers to driver_dht22_1.o(.data.Dht22) for Dht22
    hal_entry_1.o(.text.hal_entry) refers to driver_dht22_1.o(.text.Dht22_Read) for Dht22_Read
    hal_entry_1.o(.text.hal_entry) refers to hal_entry_1.o(.rodata.str1.1) for .L.str.4
    hal_entry_1.o(.text.hal_entry) refers to printfa.o(i.__0snprintf) for __2snprintf
    hal_entry_1.o(.text.hal_entry) refers to hal_entry_1.o(.text.Hmi_SendCmd) for Hmi_SendCmd
    hal_entry_1.o(.text.hal_entry) refers to hal_entry_1.o(.bss.Task_CO2.rx_index) for Task_CO2.rx_index
    hal_entry_1.o(.text.hal_entry) refers to hal_entry_1.o(.bss.Task_CO2.rx_frame) for Task_CO2.rx_frame
    hal_entry_1.o(.text.hal_entry) refers to hal_entry_1.o(.bss.Task_CO2.low_co2_count) for Task_CO2.low_co2_count
    hal_entry_1.o(.text.hal_entry) refers to hal_entry_1.o(.bss.Task_CO2.add_rest_count) for Task_CO2.add_rest_count
    hal_entry_1.o(.text.hal_entry) refers to hal_entry_1.o(.bss.Task_CO2.add_send_count) for Task_CO2.add_send_count
    hal_entry_1.o(.text.hal_entry) refers to hal_entry_1.o(.bss.Task_HMI.hmi_rx_idle_tick) for Task_HMI.hmi_rx_idle_tick
    hal_entry_1.o(.text.hal_entry) refers to memcmp.o(.text) for memcmp
    hal_entry_1.o(.text.hal_entry) refers to hal_entry_1.o(.rodata.Task_HMI.enroll_cmd) for Task_HMI.enroll_cmd
    hal_entry_1.o(.text.hal_entry) refers to driver_uart_1.o(.text.Uart_Send) for Uart_Send
    hal_entry_1.o(.text.hal_entry) refers to hal_entry_1.o(.rodata.Task_HMI.reset_cmd) for Task_HMI.reset_cmd
    hal_entry_1.o(.text.hal_entry) refers to hal_entry_1.o(.bss.g_face_state) for g_face_state
    hal_entry_1.o(.text.hal_entry) refers to hal_entry_1.o(.bss.g_face_delay_tick) for g_face_delay_tick
    hal_entry_1.o(.text.hal_entry) refers to hal_entry_1.o(.rodata.Task_Face.reco_cmd) for Task_Face.reco_cmd
    hal_entry_1.o(.text.hal_entry) refers to hal_entry_1.o(.bss.Task_Face.sci9_rx_idx) for Task_Face.sci9_rx_idx
    hal_entry_1.o(.text.hal_entry) refers to hal_entry_1.o(.bss.Task_Face.sci9_rx_frame) for Task_Face.sci9_rx_frame
    hal_entry_1.o(.text.hal_entry) refers to hal_entry_1.o(.bss.Task_Face.sci9_rx_idle_tick) for Task_Face.sci9_rx_idle_tick
    hal_entry_1.o(.text.hal_entry) refers to hal_entry_1.o(.bss.Task_Uart8.rx_idx) for Task_Uart8.rx_idx
    hal_entry_1.o(.text.hal_entry) refers to hal_entry_1.o(.bss.Task_Uart8.rx_frame) for Task_Uart8.rx_frame
    hal_entry_1.o(.text.hal_entry) refers to driver_bh1750_1.o(.text.Bh1750_ReadLux) for Bh1750_ReadLux
    hal_entry_1.o(.text.hal_entry) refers to f2d.o(.text) for __aeabi_f2d
    hal_entry_1.o(.ARM.exidx.text.hal_entry) refers to hal_entry_1.o(.text.hal_entry) for [Anonymous Symbol]
    hal_entry_1.o(.text.Hmi_SendCmd) refers to printfa.o(i.__0snprintf) for __2snprintf
    hal_entry_1.o(.text.Hmi_SendCmd) refers to driver_uart_1.o(.data.UartHmi) for UartHmi
    hal_entry_1.o(.text.Hmi_SendCmd) refers to driver_uart_1.o(.text.Uart_Send) for Uart_Send
    hal_entry_1.o(.ARM.exidx.text.Hmi_SendCmd) refers to hal_entry_1.o(.text.Hmi_SendCmd) for [Anonymous Symbol]
    hal_warmstart_1.o(.text.R_BSP_WarmStart) refers to common_data.o(.bss.g_ioport_ctrl) for g_ioport_ctrl
    hal_warmstart_1.o(.text.R_BSP_WarmStart) refers to pin_data.o(.rodata.g_bsp_pin_cfg) for g_bsp_pin_cfg
    hal_warmstart_1.o(.text.R_BSP_WarmStart) refers to r_ioport.o(.text.R_IOPORT_Open) for R_IOPORT_Open
    hal_warmstart_1.o(.ARM.exidx.text.R_BSP_WarmStart) refers to hal_warmstart_1.o(.text.R_BSP_WarmStart) for [Anonymous Symbol]
    driver_dht22_1.o(.text.Dht22_Read) refers to common_data.o(.bss.g_ioport_ctrl) for g_ioport_ctrl
    driver_dht22_1.o(.text.Dht22_Read) refers to r_ioport.o(.text.R_IOPORT_PinCfg) for R_IOPORT_PinCfg
    driver_dht22_1.o(.text.Dht22_Read) refers to r_ioport.o(.text.R_IOPORT_PinWrite) for R_IOPORT_PinWrite
    driver_dht22_1.o(.text.Dht22_Read) refers to bsp_delay.o(.text.R_BSP_SoftwareDelay) for R_BSP_SoftwareDelay
    driver_dht22_1.o(.text.Dht22_Read) refers to r_ioport.o(.text.R_IOPORT_PinRead) for R_IOPORT_PinRead
    driver_dht22_1.o(.ARM.exidx.text.Dht22_Read) refers to driver_dht22_1.o(.text.Dht22_Read) for [Anonymous Symbol]
    driver_uart_1.o(.text.Uart_Init) refers to r_sci_uart.o(.text.R_SCI_UART_Open) for R_SCI_UART_Open
    driver_uart_1.o(.ARM.exidx.text.Uart_Init) refers to driver_uart_1.o(.text.Uart_Init) for [Anonymous Symbol]
    driver_uart_1.o(.text.Uart_StartRx) refers to r_sci_uart.o(.text.R_SCI_UART_Read) for R_SCI_UART_Read
    driver_uart_1.o(.ARM.exidx.text.Uart_StartRx) refers to driver_uart_1.o(.text.Uart_StartRx) for [Anonymous Symbol]
    driver_uart_1.o(.text.Uart_Send) refers to r_sci_uart.o(.text.R_SCI_UART_Write) for R_SCI_UART_Write
    driver_uart_1.o(.ARM.exidx.text.Uart_Send) refers to driver_uart_1.o(.text.Uart_Send) for [Anonymous Symbol]
    driver_uart_1.o(.text.Uart_Printf) refers to driver_uart_1.o(.bss.Uart_Printf.buffer) for Uart_Printf.buffer
    driver_uart_1.o(.text.Uart_Printf) refers to printfa.o(i.__0vsnprintf) for vsnprintf
    driver_uart_1.o(.text.Uart_Printf) refers to r_sci_uart.o(.text.R_SCI_UART_Write) for R_SCI_UART_Write
    driver_uart_1.o(.ARM.exidx.text.Uart_Printf) refers to driver_uart_1.o(.text.Uart_Printf) for [Anonymous Symbol]
    driver_uart_1.o(.data.UartSensor) refers to hal_data.o(.bss.g_uart2_ctrl) for g_uart2_ctrl
    driver_uart_1.o(.data.UartSensor) refers to hal_data.o(.rodata.g_uart2_cfg) for g_uart2_cfg
    driver_uart_1.o(.data.UartHmi) refers to hal_data.o(.bss.g_uart4_ctrl) for g_uart4_ctrl
    driver_uart_1.o(.data.UartHmi) refers to hal_data.o(.rodata.g_uart4_cfg) for g_uart4_cfg
    driver_uart_1.o(.data.UartPc) refers to hal_data.o(.bss.g_uart7_ctrl) for g_uart7_ctrl
    driver_uart_1.o(.data.UartPc) refers to hal_data.o(.rodata.g_uart7_cfg) for g_uart7_cfg
    driver_uart_1.o(.data.UartFace) refers to hal_data.o(.bss.g_uart9_ctrl) for g_uart9_ctrl
    driver_uart_1.o(.data.UartFace) refers to hal_data.o(.rodata.g_uart9_cfg) for g_uart9_cfg
    driver_uart_1.o(.data.Uart8) refers to hal_data.o(.bss.g_uart8_ctrl) for g_uart8_ctrl
    driver_uart_1.o(.data.Uart8) refers to hal_data.o(.rodata.g_uart8_cfg) for g_uart8_cfg
    driver_bh1750_1.o(.text.Bh1750_Init) refers to driver_bh1750_1.o(.text.bh1750_write_cmd) for bh1750_write_cmd
    driver_bh1750_1.o(.ARM.exidx.text.Bh1750_Init) refers to driver_bh1750_1.o(.text.Bh1750_Init) for [Anonymous Symbol]
    driver_bh1750_1.o(.text.bh1750_write_cmd) refers to hal_entry_1.o(.bss.g_i2c_completed) for g_i2c_completed
    driver_bh1750_1.o(.text.bh1750_write_cmd) refers to hal_entry_1.o(.bss.g_i2c_aborted) for g_i2c_aborted
    driver_bh1750_1.o(.ARM.exidx.text.bh1750_write_cmd) refers to driver_bh1750_1.o(.text.bh1750_write_cmd) for [Anonymous Symbol]
    driver_bh1750_1.o(.text.Bh1750_ReadLux) refers to hal_entry_1.o(.bss.g_i2c_completed) for g_i2c_completed
    driver_bh1750_1.o(.text.Bh1750_ReadLux) refers to hal_entry_1.o(.bss.g_i2c_aborted) for g_i2c_aborted
    driver_bh1750_1.o(.ARM.exidx.text.Bh1750_ReadLux) refers to driver_bh1750_1.o(.text.Bh1750_ReadLux) for [Anonymous Symbol]
    startup.o(.text.Reset_Handler) refers to system.o(.text.SystemInit) for SystemInit
    startup.o(.text.Reset_Handler) refers to main.o(.text.main) for main
    startup.o(.ARM.exidx.text.Reset_Handler) refers to startup.o(.text.Reset_Handler) for [Anonymous Symbol]
    startup.o(.ARM.exidx.text.Default_Handler) refers to startup.o(.text.Default_Handler) for [Anonymous Symbol]
    startup.o(.fixed_vectors) refers to startup.o(.bss.g_main_stack) for g_main_stack
    startup.o(.fixed_vectors) refers to startup.o(.text.Reset_Handler) for Reset_Handler
    startup.o(.fixed_vectors) refers to bsp_group_irq.o(.text.NMI_Handler) for NMI_Handler
    startup.o(.fixed_vectors) refers to startup.o(.text.Default_Handler) for HardFault_Handler
    system.o(.text.SystemInit) refers to startup.o(.fixed_vectors) for __Vectors
    system.o(.text.SystemInit) refers to hal_warmstart_1.o(.text.R_BSP_WarmStart) for R_BSP_WarmStart
    system.o(.text.SystemInit) refers to bsp_clocks.o(.text.bsp_clock_init) for bsp_clock_init
    system.o(.text.SystemInit) refers to startup.o(.bss.g_main_stack) for g_main_stack
    system.o(.text.SystemInit) refers to system.o(.text.SystemRuntimeInit) for SystemRuntimeInit
    system.o(.text.SystemInit) refers to bsp_clocks.o(.text.SystemCoreClockUpdate) for SystemCoreClockUpdate
    system.o(.text.SystemInit) refers to bsp_clocks.o(.text.R_BSP_Init_RTC) for R_BSP_Init_RTC
    system.o(.text.SystemInit) refers to bsp_register_protection.o(.text.R_BSP_RegisterProtectDisable) for R_BSP_RegisterProtectDisable
    system.o(.text.SystemInit) refers to bsp_register_protection.o(.text.R_BSP_RegisterProtectEnable) for R_BSP_RegisterProtectEnable
    system.o(.text.SystemInit) refers to bsp_irq.o(.text.bsp_irq_cfg) for bsp_irq_cfg
    system.o(.text.SystemInit) refers to bsp_common.o(.text.bsp_init_internal) for bsp_init
    system.o(.ARM.exidx.text.SystemInit) refers to system.o(.text.SystemInit) for [Anonymous Symbol]
    system.o(.ARM.exidx.text.R_BSP_WarmStart) refers to system.o(.text.R_BSP_WarmStart) for [Anonymous Symbol]
    system.o(.text.SystemRuntimeInit) refers to bsp_linker.o(.rodata.g_init_info) for g_init_info
    system.o(.text.SystemRuntimeInit) refers to memseta.o(.text) for __aeabi_memclr4
    system.o(.text.SystemRuntimeInit) refers to memcpya.o(.text) for __aeabi_memcpy4
    system.o(.ARM.exidx.text.SystemRuntimeInit) refers to system.o(.text.SystemRuntimeInit) for [Anonymous Symbol]
    bsp_clocks.o(.ARM.exidx.text.bsp_prv_operating_mode_set) refers to bsp_clocks.o(.text.bsp_prv_operating_mode_set) for [Anonymous Symbol]
    bsp_clocks.o(.text.bsp_prv_prepare_pll) refers to bsp_clocks.o(.bss.ram_noinit) for g_clock_freq
    bsp_clocks.o(.ARM.exidx.text.bsp_prv_prepare_pll) refers to bsp_clocks.o(.text.bsp_prv_prepare_pll) for [Anonymous Symbol]
    bsp_clocks.o(.text.SystemCoreClockUpdate) refers to bsp_clocks.o(.bss.ram_noinit) for g_clock_freq
    bsp_clocks.o(.text.SystemCoreClockUpdate) refers to system.o(.bss.SystemCoreClock) for SystemCoreClock
    bsp_clocks.o(.ARM.exidx.text.SystemCoreClockUpdate) refers to bsp_clocks.o(.text.SystemCoreClockUpdate) for [Anonymous Symbol]
    bsp_clocks.o(.ARM.exidx.text.bsp_prv_clock_dividers_set) refers to bsp_clocks.o(.text.bsp_prv_clock_dividers_set) for [Anonymous Symbol]
    bsp_clocks.o(.text.bsp_prv_clock_set) refers to bsp_clocks.o(.bss.ram_noinit) for g_clock_freq
    bsp_clocks.o(.text.bsp_prv_clock_set) refers to system.o(.bss.SystemCoreClock) for SystemCoreClock
    bsp_clocks.o(.ARM.exidx.text.bsp_prv_clock_set) refers to bsp_clocks.o(.text.bsp_prv_clock_set) for [Anonymous Symbol]
    bsp_clocks.o(.text.bsp_clock_init) refers to bsp_clocks.o(.bss.ram_noinit) for g_clock_freq
    bsp_clocks.o(.text.bsp_clock_init) refers to system.o(.bss.SystemCoreClock) for SystemCoreClock
    bsp_clocks.o(.text.bsp_clock_init) refers to bsp_delay.o(.text.R_BSP_SoftwareDelay) for R_BSP_SoftwareDelay
    bsp_clocks.o(.text.bsp_clock_init) refers to bsp_clocks.o(.text.R_BSP_SubClockStabilizeWaitAfterReset) for R_BSP_SubClockStabilizeWaitAfterReset
    bsp_clocks.o(.ARM.exidx.text.bsp_clock_init) refers to bsp_clocks.o(.text.bsp_clock_init) for [Anonymous Symbol]
    bsp_clocks.o(.text.R_BSP_SubClockStabilizeWait) refers to bsp_delay.o(.text.R_BSP_SoftwareDelay) for R_BSP_SoftwareDelay
    bsp_clocks.o(.ARM.exidx.text.R_BSP_SubClockStabilizeWait) refers to bsp_clocks.o(.text.R_BSP_SubClockStabilizeWait) for [Anonymous Symbol]
    bsp_clocks.o(.ARM.exidx.text.R_BSP_SubClockStabilizeWaitAfterReset) refers to bsp_clocks.o(.text.R_BSP_SubClockStabilizeWaitAfterReset) for [Anonymous Symbol]
    bsp_clocks.o(.text.R_BSP_OctaclkUpdate) refers to bsp_clocks.o(.bss.ram_noinit) for g_clock_freq
    bsp_clocks.o(.text.R_BSP_OctaclkUpdate) refers to bsp_delay.o(.text.R_BSP_SoftwareDelay) for R_BSP_SoftwareDelay
    bsp_clocks.o(.ARM.exidx.text.R_BSP_OctaclkUpdate) refers to bsp_clocks.o(.text.R_BSP_OctaclkUpdate) for [Anonymous Symbol]
    bsp_clocks.o(.text.R_BSP_SourceClockHzGet) refers to bsp_clocks.o(.bss.ram_noinit) for g_clock_freq
    bsp_clocks.o(.ARM.exidx.text.R_BSP_SourceClockHzGet) refers to bsp_clocks.o(.text.R_BSP_SourceClockHzGet) for [Anonymous Symbol]
    bsp_clocks.o(.text.R_BSP_Init_RTC) refers to bsp_delay.o(.text.R_BSP_SoftwareDelay) for R_BSP_SoftwareDelay
    bsp_clocks.o(.text.R_BSP_Init_RTC) refers to bsp_register_protection.o(.text.R_BSP_RegisterProtectDisable) for R_BSP_RegisterProtectDisable
    bsp_clocks.o(.text.R_BSP_Init_RTC) refers to bsp_register_protection.o(.text.R_BSP_RegisterProtectEnable) for R_BSP_RegisterProtectEnable
    bsp_clocks.o(.ARM.exidx.text.R_BSP_Init_RTC) refers to bsp_clocks.o(.text.R_BSP_Init_RTC) for [Anonymous Symbol]
    bsp_common.o(.ARM.exidx.text.bsp_init_internal) refers to bsp_common.o(.text.bsp_init_internal) for [Anonymous Symbol]
    bsp_common.o(.ARM.exidx.text.R_FSP_VersionGet) refers to bsp_common.o(.text.R_FSP_VersionGet) for [Anonymous Symbol]
    bsp_common.o(.ARM.exidx.text.__aeabi_assert) refers to bsp_common.o(.text.__aeabi_assert) for [Anonymous Symbol]
    bsp_delay.o(.text.R_BSP_SoftwareDelay) refers to system.o(.bss.SystemCoreClock) for SystemCoreClock
    bsp_delay.o(.text.R_BSP_SoftwareDelay) refers to bsp_delay.o(.text.bsp_prv_software_delay_loop) for bsp_prv_software_delay_loop
    bsp_delay.o(.ARM.exidx.text.R_BSP_SoftwareDelay) refers to bsp_delay.o(.text.R_BSP_SoftwareDelay) for [Anonymous Symbol]
    bsp_delay.o(.ARM.exidx.text.bsp_prv_software_delay_loop) refers to bsp_delay.o(.text.bsp_prv_software_delay_loop) for [Anonymous Symbol]
    bsp_group_irq.o(.text.R_BSP_GroupIrqWrite) refers to bsp_group_irq.o(.bss.g_bsp_group_irq_sources) for g_bsp_group_irq_sources
    bsp_group_irq.o(.ARM.exidx.text.R_BSP_GroupIrqWrite) refers to bsp_group_irq.o(.text.R_BSP_GroupIrqWrite) for [Anonymous Symbol]
    bsp_group_irq.o(.text.NMI_Handler) refers to bsp_group_irq.o(.bss.g_bsp_group_irq_sources) for g_bsp_group_irq_sources
    bsp_group_irq.o(.ARM.exidx.text.NMI_Handler) refers to bsp_group_irq.o(.text.NMI_Handler) for [Anonymous Symbol]
    bsp_irq.o(.text.bsp_irq_cfg) refers to bsp_register_protection.o(.text.R_BSP_RegisterProtectDisable) for R_BSP_RegisterProtectDisable
    bsp_irq.o(.text.bsp_irq_cfg) refers to vector_data.o(.rodata.g_interrupt_event_link_select) for g_interrupt_event_link_select
    bsp_irq.o(.text.bsp_irq_cfg) refers to bsp_register_protection.o(.text.R_BSP_RegisterProtectEnable) for R_BSP_RegisterProtectEnable
    bsp_irq.o(.ARM.exidx.text.bsp_irq_cfg) refers to bsp_irq.o(.text.bsp_irq_cfg) for [Anonymous Symbol]
    bsp_register_protection.o(.text.R_BSP_RegisterProtectEnable) refers to bsp_register_protection.o(.bss.g_protect_counters) for g_protect_counters
    bsp_register_protection.o(.text.R_BSP_RegisterProtectEnable) refers to bsp_register_protection.o(.rodata.g_prcr_masks) for g_prcr_masks
    bsp_register_protection.o(.ARM.exidx.text.R_BSP_RegisterProtectEnable) refers to bsp_register_protection.o(.text.R_BSP_RegisterProtectEnable) for [Anonymous Symbol]
    bsp_register_protection.o(.text.R_BSP_RegisterProtectDisable) refers to bsp_register_protection.o(.bss.g_protect_counters) for g_protect_counters
    bsp_register_protection.o(.text.R_BSP_RegisterProtectDisable) refers to bsp_register_protection.o(.rodata.g_prcr_masks) for g_prcr_masks
    bsp_register_protection.o(.ARM.exidx.text.R_BSP_RegisterProtectDisable) refers to bsp_register_protection.o(.text.R_BSP_RegisterProtectDisable) for [Anonymous Symbol]
    bsp_linker.o(.rodata.g_init_info) refers to bsp_linker.o(.rodata.zero_list) for [Anonymous Symbol]
    bsp_linker.o(.rodata.g_init_info) refers to bsp_linker.o(.rodata.copy_list) for [Anonymous Symbol]
    bsp_linker.o(.rodata.g_init_info) refers to bsp_linker.o(.rodata.nocache_list) for [Anonymous Symbol]
    r_ioport.o(.text.R_IOPORT_Open) refers to r_ioport.o(.text.r_ioport_pins_config) for r_ioport_pins_config
    r_ioport.o(.ARM.exidx.text.R_IOPORT_Open) refers to r_ioport.o(.text.R_IOPORT_Open) for [Anonymous Symbol]
    r_ioport.o(.ARM.exidx.text.R_IOPORT_Close) refers to r_ioport.o(.text.R_IOPORT_Close) for [Anonymous Symbol]
    r_ioport.o(.text.R_IOPORT_PinsCfg) refers to r_ioport.o(.text.r_ioport_pins_config) for r_ioport_pins_config
    r_ioport.o(.ARM.exidx.text.R_IOPORT_PinsCfg) refers to r_ioport.o(.text.R_IOPORT_PinsCfg) for [Anonymous Symbol]
    r_ioport.o(.text.R_IOPORT_PinCfg) refers to r_ioport.o(.text.bsp_vbatt_init) for bsp_vbatt_init
    r_ioport.o(.text.R_IOPORT_PinCfg) refers to bsp_io.o(.bss.g_protect_pfswe_counter) for g_protect_pfswe_counter
    r_ioport.o(.ARM.exidx.text.R_IOPORT_PinCfg) refers to r_ioport.o(.text.R_IOPORT_PinCfg) for [Anonymous Symbol]
    r_ioport.o(.ARM.exidx.text.R_IOPORT_PinEventInputRead) refers to r_ioport.o(.text.R_IOPORT_PinEventInputRead) for [Anonymous Symbol]
    r_ioport.o(.ARM.exidx.text.R_IOPORT_PinEventOutputWrite) refers to r_ioport.o(.text.R_IOPORT_PinEventOutputWrite) for [Anonymous Symbol]
    r_ioport.o(.ARM.exidx.text.R_IOPORT_PinRead) refers to r_ioport.o(.text.R_IOPORT_PinRead) for [Anonymous Symbol]
    r_ioport.o(.ARM.exidx.text.R_IOPORT_PinWrite) refers to r_ioport.o(.text.R_IOPORT_PinWrite) for [Anonymous Symbol]
    r_ioport.o(.ARM.exidx.text.R_IOPORT_PortDirectionSet) refers to r_ioport.o(.text.R_IOPORT_PortDirectionSet) for [Anonymous Symbol]
    r_ioport.o(.ARM.exidx.text.R_IOPORT_PortEventInputRead) refers to r_ioport.o(.text.R_IOPORT_PortEventInputRead) for [Anonymous Symbol]
    r_ioport.o(.ARM.exidx.text.R_IOPORT_PortEventOutputWrite) refers to r_ioport.o(.text.R_IOPORT_PortEventOutputWrite) for [Anonymous Symbol]
    r_ioport.o(.ARM.exidx.text.R_IOPORT_PortRead) refers to r_ioport.o(.text.R_IOPORT_PortRead) for [Anonymous Symbol]
    r_ioport.o(.ARM.exidx.text.R_IOPORT_PortWrite) refers to r_ioport.o(.text.R_IOPORT_PortWrite) for [Anonymous Symbol]
    r_ioport.o(.text.r_ioport_pins_config) refers to r_ioport.o(.text.bsp_vbatt_init) for bsp_vbatt_init
    r_ioport.o(.text.r_ioport_pins_config) refers to bsp_io.o(.bss.g_protect_pfswe_counter) for g_protect_pfswe_counter
    r_ioport.o(.ARM.exidx.text.r_ioport_pins_config) refers to r_ioport.o(.text.r_ioport_pins_config) for [Anonymous Symbol]
    r_ioport.o(.text.bsp_vbatt_init) refers to bsp_register_protection.o(.text.R_BSP_RegisterProtectDisable) for R_BSP_RegisterProtectDisable
    r_ioport.o(.text.bsp_vbatt_init) refers to bsp_register_protection.o(.text.R_BSP_RegisterProtectEnable) for R_BSP_RegisterProtectEnable
    r_ioport.o(.text.bsp_vbatt_init) refers to bsp_delay.o(.text.R_BSP_SoftwareDelay) for R_BSP_SoftwareDelay
    r_ioport.o(.ARM.exidx.text.bsp_vbatt_init) refers to r_ioport.o(.text.bsp_vbatt_init) for [Anonymous Symbol]
    r_ioport.o(.rodata.g_ioport_on_ioport) refers to r_ioport.o(.text.R_IOPORT_Open) for R_IOPORT_Open
    r_ioport.o(.rodata.g_ioport_on_ioport) refers to r_ioport.o(.text.R_IOPORT_Close) for R_IOPORT_Close
    r_ioport.o(.rodata.g_ioport_on_ioport) refers to r_ioport.o(.text.R_IOPORT_PinsCfg) for R_IOPORT_PinsCfg
    r_ioport.o(.rodata.g_ioport_on_ioport) refers to r_ioport.o(.text.R_IOPORT_PinCfg) for R_IOPORT_PinCfg
    r_ioport.o(.rodata.g_ioport_on_ioport) refers to r_ioport.o(.text.R_IOPORT_PinEventInputRead) for R_IOPORT_PinEventInputRead
    r_ioport.o(.rodata.g_ioport_on_ioport) refers to r_ioport.o(.text.R_IOPORT_PinEventOutputWrite) for R_IOPORT_PinEventOutputWrite
    r_ioport.o(.rodata.g_ioport_on_ioport) refers to r_ioport.o(.text.R_IOPORT_PinRead) for R_IOPORT_PinRead
    r_ioport.o(.rodata.g_ioport_on_ioport) refers to r_ioport.o(.text.R_IOPORT_PinWrite) for R_IOPORT_PinWrite
    r_ioport.o(.rodata.g_ioport_on_ioport) refers to r_ioport.o(.text.R_IOPORT_PortDirectionSet) for R_IOPORT_PortDirectionSet
    r_ioport.o(.rodata.g_ioport_on_ioport) refers to r_ioport.o(.text.R_IOPORT_PortEventInputRead) for R_IOPORT_PortEventInputRead
    r_ioport.o(.rodata.g_ioport_on_ioport) refers to r_ioport.o(.text.R_IOPORT_PortEventOutputWrite) for R_IOPORT_PortEventOutputWrite
    r_ioport.o(.rodata.g_ioport_on_ioport) refers to r_ioport.o(.text.R_IOPORT_PortRead) for R_IOPORT_PortRead
    r_ioport.o(.rodata.g_ioport_on_ioport) refers to r_ioport.o(.text.R_IOPORT_PortWrite) for R_IOPORT_PortWrite
    r_sci_i2c.o(.text.R_SCI_I2C_Open) refers to bsp_irq.o(.bss.gp_renesas_isr_context) for gp_renesas_isr_context
    r_sci_i2c.o(.ARM.exidx.text.R_SCI_I2C_Open) refers to r_sci_i2c.o(.text.R_SCI_I2C_Open) for [Anonymous Symbol]
    r_sci_i2c.o(.text.R_SCI_I2C_Read) refers to r_sci_i2c.o(.text.sci_i2c_read_write) for sci_i2c_read_write
    r_sci_i2c.o(.ARM.exidx.text.R_SCI_I2C_Read) refers to r_sci_i2c.o(.text.R_SCI_I2C_Read) for [Anonymous Symbol]
    r_sci_i2c.o(.text.R_SCI_I2C_Write) refers to r_sci_i2c.o(.text.sci_i2c_read_write) for sci_i2c_read_write
    r_sci_i2c.o(.ARM.exidx.text.R_SCI_I2C_Write) refers to r_sci_i2c.o(.text.R_SCI_I2C_Write) for [Anonymous Symbol]
    r_sci_i2c.o(.ARM.exidx.text.R_SCI_I2C_Abort) refers to r_sci_i2c.o(.text.R_SCI_I2C_Abort) for [Anonymous Symbol]
    r_sci_i2c.o(.ARM.exidx.text.R_SCI_I2C_SlaveAddressSet) refers to r_sci_i2c.o(.text.R_SCI_I2C_SlaveAddressSet) for [Anonymous Symbol]
    r_sci_i2c.o(.ARM.exidx.text.R_SCI_I2C_CallbackSet) refers to r_sci_i2c.o(.text.R_SCI_I2C_CallbackSet) for [Anonymous Symbol]
    r_sci_i2c.o(.ARM.exidx.text.R_SCI_I2C_StatusGet) refers to r_sci_i2c.o(.text.R_SCI_I2C_StatusGet) for [Anonymous Symbol]
    r_sci_i2c.o(.ARM.exidx.text.R_SCI_I2C_Close) refers to r_sci_i2c.o(.text.R_SCI_I2C_Close) for [Anonymous Symbol]
    r_sci_i2c.o(.ARM.exidx.text.sci_i2c_read_write) refers to r_sci_i2c.o(.text.sci_i2c_read_write) for [Anonymous Symbol]
    r_sci_i2c.o(.ARM.exidx.text.sci_i2c_notify) refers to r_sci_i2c.o(.text.sci_i2c_notify) for [Anonymous Symbol]
    r_sci_i2c.o(.text.sci_i2c_txi_isr) refers to bsp_irq.o(.bss.gp_renesas_isr_context) for gp_renesas_isr_context
    r_sci_i2c.o(.ARM.exidx.text.sci_i2c_txi_isr) refers to r_sci_i2c.o(.text.sci_i2c_txi_isr) for [Anonymous Symbol]
    r_sci_i2c.o(.text.sci_i2c_tei_isr) refers to bsp_irq.o(.bss.gp_renesas_isr_context) for gp_renesas_isr_context
    r_sci_i2c.o(.ARM.exidx.text.sci_i2c_tei_isr) refers to r_sci_i2c.o(.text.sci_i2c_tei_isr) for [Anonymous Symbol]
    r_sci_i2c.o(.rodata.g_i2c_master_on_sci) refers to r_sci_i2c.o(.text.R_SCI_I2C_Open) for R_SCI_I2C_Open
    r_sci_i2c.o(.rodata.g_i2c_master_on_sci) refers to r_sci_i2c.o(.text.R_SCI_I2C_Read) for R_SCI_I2C_Read
    r_sci_i2c.o(.rodata.g_i2c_master_on_sci) refers to r_sci_i2c.o(.text.R_SCI_I2C_Write) for R_SCI_I2C_Write
    r_sci_i2c.o(.rodata.g_i2c_master_on_sci) refers to r_sci_i2c.o(.text.R_SCI_I2C_Abort) for R_SCI_I2C_Abort
    r_sci_i2c.o(.rodata.g_i2c_master_on_sci) refers to r_sci_i2c.o(.text.R_SCI_I2C_SlaveAddressSet) for R_SCI_I2C_SlaveAddressSet
    r_sci_i2c.o(.rodata.g_i2c_master_on_sci) refers to r_sci_i2c.o(.text.R_SCI_I2C_CallbackSet) for R_SCI_I2C_CallbackSet
    r_sci_i2c.o(.rodata.g_i2c_master_on_sci) refers to r_sci_i2c.o(.text.R_SCI_I2C_StatusGet) for R_SCI_I2C_StatusGet
    r_sci_i2c.o(.rodata.g_i2c_master_on_sci) refers to r_sci_i2c.o(.text.R_SCI_I2C_Close) for R_SCI_I2C_Close
    r_sci_uart.o(.text.R_SCI_UART_Open) refers to bsp_irq.o(.bss.gp_renesas_isr_context) for gp_renesas_isr_context
    r_sci_uart.o(.ARM.exidx.text.R_SCI_UART_Open) refers to r_sci_uart.o(.text.R_SCI_UART_Open) for [Anonymous Symbol]
    r_sci_uart.o(.ARM.exidx.text.R_SCI_UART_Read) refers to r_sci_uart.o(.text.R_SCI_UART_Read) for [Anonymous Symbol]
    r_sci_uart.o(.ARM.exidx.text.R_SCI_UART_Write) refers to r_sci_uart.o(.text.R_SCI_UART_Write) for [Anonymous Symbol]
    r_sci_uart.o(.ARM.exidx.text.R_SCI_UART_BaudSet) refers to r_sci_uart.o(.text.R_SCI_UART_BaudSet) for [Anonymous Symbol]
    r_sci_uart.o(.ARM.exidx.text.R_SCI_UART_InfoGet) refers to r_sci_uart.o(.text.R_SCI_UART_InfoGet) for [Anonymous Symbol]
    r_sci_uart.o(.ARM.exidx.text.R_SCI_UART_Abort) refers to r_sci_uart.o(.text.R_SCI_UART_Abort) for [Anonymous Symbol]
    r_sci_uart.o(.ARM.exidx.text.R_SCI_UART_CallbackSet) refers to r_sci_uart.o(.text.R_SCI_UART_CallbackSet) for [Anonymous Symbol]
    r_sci_uart.o(.ARM.exidx.text.R_SCI_UART_Close) refers to r_sci_uart.o(.text.R_SCI_UART_Close) for [Anonymous Symbol]
    r_sci_uart.o(.ARM.exidx.text.R_SCI_UART_ReadStop) refers to r_sci_uart.o(.text.R_SCI_UART_ReadStop) for [Anonymous Symbol]
    r_sci_uart.o(.ARM.exidx.text.R_SCI_UART_ReceiveSuspend) refers to r_sci_uart.o(.text.R_SCI_UART_ReceiveSuspend) for [Anonymous Symbol]
    r_sci_uart.o(.ARM.exidx.text.R_SCI_UART_ReceiveResume) refers to r_sci_uart.o(.text.R_SCI_UART_ReceiveResume) for [Anonymous Symbol]
    r_sci_uart.o(.text.R_SCI_UART_BaudCalculate) refers to system.o(.bss.SystemCoreClock) for SystemCoreClock
    r_sci_uart.o(.text.R_SCI_UART_BaudCalculate) refers to r_sci_uart.o(.rodata.g_async_baud) for g_async_baud
    r_sci_uart.o(.text.R_SCI_UART_BaudCalculate) refers to r_sci_uart.o(.rodata.g_div_coefficient) for g_div_coefficient
    r_sci_uart.o(.text.R_SCI_UART_BaudCalculate) refers to ldiv.o(.text) for __aeabi_ldivmod
    r_sci_uart.o(.ARM.exidx.text.R_SCI_UART_BaudCalculate) refers to r_sci_uart.o(.text.R_SCI_UART_BaudCalculate) for [Anonymous Symbol]
    r_sci_uart.o(.text.sci_uart_txi_isr) refers to bsp_irq.o(.bss.gp_renesas_isr_context) for gp_renesas_isr_context
    r_sci_uart.o(.text.sci_uart_txi_isr) refers to r_sci_uart.o(.text.r_sci_uart_call_callback) for r_sci_uart_call_callback
    r_sci_uart.o(.ARM.exidx.text.sci_uart_txi_isr) refers to r_sci_uart.o(.text.sci_uart_txi_isr) for [Anonymous Symbol]
    r_sci_uart.o(.ARM.exidx.text.r_sci_uart_call_callback) refers to r_sci_uart.o(.text.r_sci_uart_call_callback) for [Anonymous Symbol]
    r_sci_uart.o(.text.sci_uart_rxi_isr) refers to bsp_irq.o(.bss.gp_renesas_isr_context) for gp_renesas_isr_context
    r_sci_uart.o(.text.sci_uart_rxi_isr) refers to memcpya.o(.text) for __aeabi_memcpy
    r_sci_uart.o(.text.sci_uart_rxi_isr) refers to r_sci_uart.o(.text.r_sci_uart_call_callback) for r_sci_uart_call_callback
    r_sci_uart.o(.ARM.exidx.text.sci_uart_rxi_isr) refers to r_sci_uart.o(.text.sci_uart_rxi_isr) for [Anonymous Symbol]
    r_sci_uart.o(.text.sci_uart_tei_isr) refers to bsp_irq.o(.bss.gp_renesas_isr_context) for gp_renesas_isr_context
    r_sci_uart.o(.text.sci_uart_tei_isr) refers to r_sci_uart.o(.text.r_sci_uart_call_callback) for r_sci_uart_call_callback
    r_sci_uart.o(.ARM.exidx.text.sci_uart_tei_isr) refers to r_sci_uart.o(.text.sci_uart_tei_isr) for [Anonymous Symbol]
    r_sci_uart.o(.text.sci_uart_eri_isr) refers to bsp_irq.o(.bss.gp_renesas_isr_context) for gp_renesas_isr_context
    r_sci_uart.o(.text.sci_uart_eri_isr) refers to r_sci_uart.o(.text.r_sci_uart_call_callback) for r_sci_uart_call_callback
    r_sci_uart.o(.ARM.exidx.text.sci_uart_eri_isr) refers to r_sci_uart.o(.text.sci_uart_eri_isr) for [Anonymous Symbol]
    r_sci_uart.o(.rodata.g_uart_on_sci) refers to r_sci_uart.o(.text.R_SCI_UART_Open) for R_SCI_UART_Open
    r_sci_uart.o(.rodata.g_uart_on_sci) refers to r_sci_uart.o(.text.R_SCI_UART_Read) for R_SCI_UART_Read
    r_sci_uart.o(.rodata.g_uart_on_sci) refers to r_sci_uart.o(.text.R_SCI_UART_Write) for R_SCI_UART_Write
    r_sci_uart.o(.rodata.g_uart_on_sci) refers to r_sci_uart.o(.text.R_SCI_UART_BaudSet) for R_SCI_UART_BaudSet
    r_sci_uart.o(.rodata.g_uart_on_sci) refers to r_sci_uart.o(.text.R_SCI_UART_InfoGet) for R_SCI_UART_InfoGet
    r_sci_uart.o(.rodata.g_uart_on_sci) refers to r_sci_uart.o(.text.R_SCI_UART_Abort) for R_SCI_UART_Abort
    r_sci_uart.o(.rodata.g_uart_on_sci) refers to r_sci_uart.o(.text.R_SCI_UART_CallbackSet) for R_SCI_UART_CallbackSet
    r_sci_uart.o(.rodata.g_uart_on_sci) refers to r_sci_uart.o(.text.R_SCI_UART_Close) for R_SCI_UART_Close
    r_sci_uart.o(.rodata.g_uart_on_sci) refers to r_sci_uart.o(.text.R_SCI_UART_ReadStop) for R_SCI_UART_ReadStop
    r_sci_uart.o(.rodata.g_uart_on_sci) refers to r_sci_uart.o(.text.R_SCI_UART_ReceiveSuspend) for R_SCI_UART_ReceiveSuspend
    r_sci_uart.o(.rodata.g_uart_on_sci) refers to r_sci_uart.o(.text.R_SCI_UART_ReceiveResume) for R_SCI_UART_ReceiveResume
    common_data.o(.ARM.exidx.text.g_common_init) refers to common_data.o(.text.g_common_init) for [Anonymous Symbol]
    common_data.o(.rodata.g_ioport) refers to common_data.o(.bss.g_ioport_ctrl) for g_ioport_ctrl
    common_data.o(.rodata.g_ioport) refers to pin_data.o(.rodata.g_bsp_pin_cfg) for g_bsp_pin_cfg
    common_data.o(.rodata.g_ioport) refers to r_ioport.o(.rodata.g_ioport_on_ioport) for g_ioport_on_ioport
    hal_data.o(.text.g_hal_init) refers to common_data.o(.text.g_common_init) for g_common_init
    hal_data.o(.ARM.exidx.text.g_hal_init) refers to hal_data.o(.text.g_hal_init) for [Anonymous Symbol]
    hal_data.o(.rodata.g_i2c5_cfg) refers to hal_entry_1.o(.text.sci_i2c_master_callback) for sci_i2c_master_callback
    hal_data.o(.rodata.g_i2c5_cfg) refers to hal_data.o(.rodata.g_i2c5_cfg_extend) for g_i2c5_cfg_extend
    hal_data.o(.rodata.g_i2c5) refers to hal_data.o(.bss.g_i2c5_ctrl) for g_i2c5_ctrl
    hal_data.o(.rodata.g_i2c5) refers to hal_data.o(.rodata.g_i2c5_cfg) for g_i2c5_cfg
    hal_data.o(.rodata.g_i2c5) refers to r_sci_i2c.o(.rodata.g_i2c_master_on_sci) for g_i2c_master_on_sci
    hal_data.o(.rodata.g_uart8_cfg_extend) refers to hal_data.o(.data.g_uart8_baud_setting) for g_uart8_baud_setting
    hal_data.o(.rodata.g_uart8_cfg) refers to hal_entry_1.o(.text.uart8_callback) for uart8_callback
    hal_data.o(.rodata.g_uart8_cfg) refers to hal_data.o(.rodata.g_uart8_cfg_extend) for g_uart8_cfg_extend
    hal_data.o(.rodata.g_uart8) refers to hal_data.o(.bss.g_uart8_ctrl) for g_uart8_ctrl
    hal_data.o(.rodata.g_uart8) refers to hal_data.o(.rodata.g_uart8_cfg) for g_uart8_cfg
    hal_data.o(.rodata.g_uart8) refers to r_sci_uart.o(.rodata.g_uart_on_sci) for g_uart_on_sci
    hal_data.o(.rodata.g_uart9_cfg_extend) refers to hal_data.o(.data.g_uart9_baud_setting) for g_uart9_baud_setting
    hal_data.o(.rodata.g_uart9_cfg) refers to hal_entry_1.o(.text.uart9_callback) for uart9_callback
    hal_data.o(.rodata.g_uart9_cfg) refers to hal_data.o(.rodata.g_uart9_cfg_extend) for g_uart9_cfg_extend
    hal_data.o(.rodata.g_uart9) refers to hal_data.o(.bss.g_uart9_ctrl) for g_uart9_ctrl
    hal_data.o(.rodata.g_uart9) refers to hal_data.o(.rodata.g_uart9_cfg) for g_uart9_cfg
    hal_data.o(.rodata.g_uart9) refers to r_sci_uart.o(.rodata.g_uart_on_sci) for g_uart_on_sci
    hal_data.o(.rodata.g_uart7_cfg_extend) refers to hal_data.o(.data.g_uart7_baud_setting) for g_uart7_baud_setting
    hal_data.o(.rodata.g_uart7_cfg) refers to hal_entry_1.o(.text.uart7_callback) for uart7_callback
    hal_data.o(.rodata.g_uart7_cfg) refers to hal_data.o(.rodata.g_uart7_cfg_extend) for g_uart7_cfg_extend
    hal_data.o(.rodata.g_uart7) refers to hal_data.o(.bss.g_uart7_ctrl) for g_uart7_ctrl
    hal_data.o(.rodata.g_uart7) refers to hal_data.o(.rodata.g_uart7_cfg) for g_uart7_cfg
    hal_data.o(.rodata.g_uart7) refers to r_sci_uart.o(.rodata.g_uart_on_sci) for g_uart_on_sci
    hal_data.o(.rodata.g_uart4_cfg_extend) refers to hal_data.o(.data.g_uart4_baud_setting) for g_uart4_baud_setting
    hal_data.o(.rodata.g_uart4_cfg) refers to hal_entry_1.o(.text.uart4_callback) for uart4_callback
    hal_data.o(.rodata.g_uart4_cfg) refers to hal_data.o(.rodata.g_uart4_cfg_extend) for g_uart4_cfg_extend
    hal_data.o(.rodata.g_uart4) refers to hal_data.o(.bss.g_uart4_ctrl) for g_uart4_ctrl
    hal_data.o(.rodata.g_uart4) refers to hal_data.o(.rodata.g_uart4_cfg) for g_uart4_cfg
    hal_data.o(.rodata.g_uart4) refers to r_sci_uart.o(.rodata.g_uart_on_sci) for g_uart_on_sci
    hal_data.o(.rodata.g_uart2_cfg_extend) refers to hal_data.o(.data.g_uart2_baud_setting) for g_uart2_baud_setting
    hal_data.o(.rodata.g_uart2_cfg) refers to hal_entry_1.o(.text.uart2_callback) for uart2_callback
    hal_data.o(.rodata.g_uart2_cfg) refers to hal_data.o(.rodata.g_uart2_cfg_extend) for g_uart2_cfg_extend
    hal_data.o(.rodata.g_uart2) refers to hal_data.o(.bss.g_uart2_ctrl) for g_uart2_ctrl
    hal_data.o(.rodata.g_uart2) refers to hal_data.o(.rodata.g_uart2_cfg) for g_uart2_cfg
    hal_data.o(.rodata.g_uart2) refers to r_sci_uart.o(.rodata.g_uart_on_sci) for g_uart_on_sci
    main.o(.text.main) refers to hal_entry_1.o(.text.hal_entry) for hal_entry
    main.o(.ARM.exidx.text.main) refers to main.o(.text.main) for [Anonymous Symbol]
    pin_data.o(.rodata.g_bsp_pin_cfg) refers to pin_data.o(.rodata.g_bsp_pin_cfg_data) for g_bsp_pin_cfg_data
    vector_data.o(.application_vectors) refers to r_sci_uart.o(.text.sci_uart_rxi_isr) for sci_uart_rxi_isr
    vector_data.o(.application_vectors) refers to r_sci_uart.o(.text.sci_uart_txi_isr) for sci_uart_txi_isr
    vector_data.o(.application_vectors) refers to r_sci_uart.o(.text.sci_uart_tei_isr) for sci_uart_tei_isr
    vector_data.o(.application_vectors) refers to r_sci_uart.o(.text.sci_uart_eri_isr) for sci_uart_eri_isr
    vector_data.o(.application_vectors) refers to r_sci_i2c.o(.text.sci_i2c_txi_isr) for sci_i2c_txi_isr
    vector_data.o(.application_vectors) refers to r_sci_i2c.o(.text.sci_i2c_tei_isr) for sci_i2c_tei_isr
    ldiv.o(.text) refers to uldiv.o(.text) for __aeabi_uldivmod
    printfb.o(i.__0fprintf$bare) refers to printfb.o(i._printf_core) for _printf_core
    printfb.o(i.__0fprintf$bare) refers to fputc.o(i.fputc) for fputc
    printfb.o(i.__0printf$bare) refers to printfb.o(i._printf_core) for _printf_core
    printfb.o(i.__0printf$bare) refers to fputc.o(i.fputc) for fputc
    printfb.o(i.__0printf$bare) refers to stdout.o(.data) for __stdout
    printfb.o(i.__0snprintf$bare) refers to printfb.o(i._printf_core) for _printf_core
    printfb.o(i.__0snprintf$bare) refers to printfb.o(i._snputc) for _snputc
    printfb.o(i.__0sprintf$bare) refers to printfb.o(i._printf_core) for _printf_core
    printfb.o(i.__0sprintf$bare) refers to printfb.o(i._sputc) for _sputc
    printfb.o(i.__0vfprintf$bare) refers to printfb.o(i._printf_core) for _printf_core
    printfb.o(i.__0vfprintf$bare) refers to fputc.o(i.fputc) for fputc
    printfb.o(i.__0vprintf$bare) refers to printfb.o(i._printf_core) for _printf_core
    printfb.o(i.__0vprintf$bare) refers to fputc.o(i.fputc) for fputc
    printfb.o(i.__0vprintf$bare) refers to stdout.o(.data) for __stdout
    printfb.o(i.__0vsnprintf$bare) refers to printfb.o(i._printf_core) for _printf_core
    printfb.o(i.__0vsnprintf$bare) refers to printfb.o(i._snputc) for _snputc
    printfb.o(i.__0vsprintf$bare) refers to printfb.o(i._printf_core) for _printf_core
    printfb.o(i.__0vsprintf$bare) refers to printfb.o(i._sputc) for _sputc
    printf0.o(i.__0fprintf$0) refers to printf0.o(i._printf_core) for _printf_core
    printf0.o(i.__0fprintf$0) refers to fputc.o(i.fputc) for fputc
    printf0.o(i.__0printf$0) refers to printf0.o(i._printf_core) for _printf_core
    printf0.o(i.__0printf$0) refers to fputc.o(i.fputc) for fputc
    printf0.o(i.__0printf$0) refers to stdout.o(.data) for __stdout
    printf0.o(i.__0snprintf$0) refers to printf0.o(i._printf_core) for _printf_core
    printf0.o(i.__0snprintf$0) refers to printf0.o(i._snputc) for _snputc
    printf0.o(i.__0sprintf$0) refers to printf0.o(i._printf_core) for _printf_core
    printf0.o(i.__0sprintf$0) refers to printf0.o(i._sputc) for _sputc
    printf0.o(i.__0vfprintf$0) refers to printf0.o(i._printf_core) for _printf_core
    printf0.o(i.__0vfprintf$0) refers to fputc.o(i.fputc) for fputc
    printf0.o(i.__0vprintf$0) refers to printf0.o(i._printf_core) for _printf_core
    printf0.o(i.__0vprintf$0) refers to fputc.o(i.fputc) for fputc
    printf0.o(i.__0vprintf$0) refers to stdout.o(.data) for __stdout
    printf0.o(i.__0vsnprintf$0) refers to printf0.o(i._printf_core) for _printf_core
    printf0.o(i.__0vsnprintf$0) refers to printf0.o(i._snputc) for _snputc
    printf0.o(i.__0vsprintf$0) refers to printf0.o(i._printf_core) for _printf_core
    printf0.o(i.__0vsprintf$0) refers to printf0.o(i._sputc) for _sputc
    printf1.o(i.__0fprintf$1) refers to printf1.o(i._printf_core) for _printf_core
    printf1.o(i.__0fprintf$1) refers to fputc.o(i.fputc) for fputc
    printf1.o(i.__0printf$1) refers to printf1.o(i._printf_core) for _printf_core
    printf1.o(i.__0printf$1) refers to fputc.o(i.fputc) for fputc
    printf1.o(i.__0printf$1) refers to stdout.o(.data) for __stdout
    printf1.o(i.__0snprintf$1) refers to printf1.o(i._printf_core) for _printf_core
    printf1.o(i.__0snprintf$1) refers to printf1.o(i._snputc) for _snputc
    printf1.o(i.__0sprintf$1) refers to printf1.o(i._printf_core) for _printf_core
    printf1.o(i.__0sprintf$1) refers to printf1.o(i._sputc) for _sputc
    printf1.o(i.__0vfprintf$1) refers to printf1.o(i._printf_core) for _printf_core
    printf1.o(i.__0vfprintf$1) refers to fputc.o(i.fputc) for fputc
    printf1.o(i.__0vprintf$1) refers to printf1.o(i._printf_core) for _printf_core
    printf1.o(i.__0vprintf$1) refers to fputc.o(i.fputc) for fputc
    printf1.o(i.__0vprintf$1) refers to stdout.o(.data) for __stdout
    printf1.o(i.__0vsnprintf$1) refers to printf1.o(i._printf_core) for _printf_core
    printf1.o(i.__0vsnprintf$1) refers to printf1.o(i._snputc) for _snputc
    printf1.o(i.__0vsprintf$1) refers to printf1.o(i._printf_core) for _printf_core
    printf1.o(i.__0vsprintf$1) refers to printf1.o(i._sputc) for _sputc
    printf1.o(i._printf_core) refers to uidiv.o(.text) for __aeabi_uidivmod
    printf2.o(i.__0fprintf$2) refers to printf2.o(i._printf_core) for _printf_core
    printf2.o(i.__0fprintf$2) refers to fputc.o(i.fputc) for fputc
    printf2.o(i.__0printf$2) refers to printf2.o(i._printf_core) for _printf_core
    printf2.o(i.__0printf$2) refers to fputc.o(i.fputc) for fputc
    printf2.o(i.__0printf$2) refers to stdout.o(.data) for __stdout
    printf2.o(i.__0snprintf$2) refers to printf2.o(i._printf_core) for _printf_core
    printf2.o(i.__0snprintf$2) refers to printf2.o(i._snputc) for _snputc
    printf2.o(i.__0sprintf$2) refers to printf2.o(i._printf_core) for _printf_core
    printf2.o(i.__0sprintf$2) refers to printf2.o(i._sputc) for _sputc
    printf2.o(i.__0vfprintf$2) refers to printf2.o(i._printf_core) for _printf_core
    printf2.o(i.__0vfprintf$2) refers to fputc.o(i.fputc) for fputc
    printf2.o(i.__0vprintf$2) refers to printf2.o(i._printf_core) for _printf_core
    printf2.o(i.__0vprintf$2) refers to fputc.o(i.fputc) for fputc
    printf2.o(i.__0vprintf$2) refers to stdout.o(.data) for __stdout
    printf2.o(i.__0vsnprintf$2) refers to printf2.o(i._printf_core) for _printf_core
    printf2.o(i.__0vsnprintf$2) refers to printf2.o(i._snputc) for _snputc
    printf2.o(i.__0vsprintf$2) refers to printf2.o(i._printf_core) for _printf_core
    printf2.o(i.__0vsprintf$2) refers to printf2.o(i._sputc) for _sputc
    printf3.o(i.__0fprintf$3) refers to printf3.o(i._printf_core) for _printf_core
    printf3.o(i.__0fprintf$3) refers to fputc.o(i.fputc) for fputc
    printf3.o(i.__0printf$3) refers to printf3.o(i._printf_core) for _printf_core
    printf3.o(i.__0printf$3) refers to fputc.o(i.fputc) for fputc
    printf3.o(i.__0printf$3) refers to stdout.o(.data) for __stdout
    printf3.o(i.__0snprintf$3) refers to printf3.o(i._printf_core) for _printf_core
    printf3.o(i.__0snprintf$3) refers to printf3.o(i._snputc) for _snputc
    printf3.o(i.__0sprintf$3) refers to printf3.o(i._printf_core) for _printf_core
    printf3.o(i.__0sprintf$3) refers to printf3.o(i._sputc) for _sputc
    printf3.o(i.__0vfprintf$3) refers to printf3.o(i._printf_core) for _printf_core
    printf3.o(i.__0vfprintf$3) refers to fputc.o(i.fputc) for fputc
    printf3.o(i.__0vprintf$3) refers to printf3.o(i._printf_core) for _printf_core
    printf3.o(i.__0vprintf$3) refers to fputc.o(i.fputc) for fputc
    printf3.o(i.__0vprintf$3) refers to stdout.o(.data) for __stdout
    printf3.o(i.__0vsnprintf$3) refers to printf3.o(i._printf_core) for _printf_core
    printf3.o(i.__0vsnprintf$3) refers to printf3.o(i._snputc) for _snputc
    printf3.o(i.__0vsprintf$3) refers to printf3.o(i._printf_core) for _printf_core
    printf3.o(i.__0vsprintf$3) refers to printf3.o(i._sputc) for _sputc
    printf3.o(i._printf_core) refers to uidiv.o(.text) for __aeabi_uidivmod
    printf4.o(i.__0fprintf$4) refers to printf4.o(i._printf_core) for _printf_core
    printf4.o(i.__0fprintf$4) refers to fputc.o(i.fputc) for fputc
    printf4.o(i.__0printf$4) refers to printf4.o(i._printf_core) for _printf_core
    printf4.o(i.__0printf$4) refers to fputc.o(i.fputc) for fputc
    printf4.o(i.__0printf$4) refers to stdout.o(.data) for __stdout
    printf4.o(i.__0snprintf$4) refers to printf4.o(i._printf_core) for _printf_core
    printf4.o(i.__0snprintf$4) refers to printf4.o(i._snputc) for _snputc
    printf4.o(i.__0sprintf$4) refers to printf4.o(i._printf_core) for _printf_core
    printf4.o(i.__0sprintf$4) refers to printf4.o(i._sputc) for _sputc
    printf4.o(i.__0vfprintf$4) refers to printf4.o(i._printf_core) for _printf_core
    printf4.o(i.__0vfprintf$4) refers to fputc.o(i.fputc) for fputc
    printf4.o(i.__0vprintf$4) refers to printf4.o(i._printf_core) for _printf_core
    printf4.o(i.__0vprintf$4) refers to fputc.o(i.fputc) for fputc
    printf4.o(i.__0vprintf$4) refers to stdout.o(.data) for __stdout
    printf4.o(i.__0vsnprintf$4) refers to printf4.o(i._printf_core) for _printf_core
    printf4.o(i.__0vsnprintf$4) refers to printf4.o(i._snputc) for _snputc
    printf4.o(i.__0vsprintf$4) refers to printf4.o(i._printf_core) for _printf_core
    printf4.o(i.__0vsprintf$4) refers to printf4.o(i._sputc) for _sputc
    printf4.o(i._printf_core) refers to uldiv.o(.text) for __aeabi_uldivmod
    printf5.o(i.__0fprintf$5) refers to printf5.o(i._printf_core) for _printf_core
    printf5.o(i.__0fprintf$5) refers to fputc.o(i.fputc) for fputc
    printf5.o(i.__0printf$5) refers to printf5.o(i._printf_core) for _printf_core
    printf5.o(i.__0printf$5) refers to fputc.o(i.fputc) for fputc
    printf5.o(i.__0printf$5) refers to stdout.o(.data) for __stdout
    printf5.o(i.__0snprintf$5) refers to printf5.o(i._printf_core) for _printf_core
    printf5.o(i.__0snprintf$5) refers to printf5.o(i._snputc) for _snputc
    printf5.o(i.__0sprintf$5) refers to printf5.o(i._printf_core) for _printf_core
    printf5.o(i.__0sprintf$5) refers to printf5.o(i._sputc) for _sputc
    printf5.o(i.__0vfprintf$5) refers to printf5.o(i._printf_core) for _printf_core
    printf5.o(i.__0vfprintf$5) refers to fputc.o(i.fputc) for fputc
    printf5.o(i.__0vprintf$5) refers to printf5.o(i._printf_core) for _printf_core
    printf5.o(i.__0vprintf$5) refers to fputc.o(i.fputc) for fputc
    printf5.o(i.__0vprintf$5) refers to stdout.o(.data) for __stdout
    printf5.o(i.__0vsnprintf$5) refers to printf5.o(i._printf_core) for _printf_core
    printf5.o(i.__0vsnprintf$5) refers to printf5.o(i._snputc) for _snputc
    printf5.o(i.__0vsprintf$5) refers to printf5.o(i._printf_core) for _printf_core
    printf5.o(i.__0vsprintf$5) refers to printf5.o(i._sputc) for _sputc
    printf5.o(i._printf_core) refers to uldiv.o(.text) for __aeabi_uldivmod
    printf6.o(i.__0fprintf$6) refers to printf6.o(i._printf_core) for _printf_core
    printf6.o(i.__0fprintf$6) refers to fputc.o(i.fputc) for fputc
    printf6.o(i.__0printf$6) refers to printf6.o(i._printf_core) for _printf_core
    printf6.o(i.__0printf$6) refers to fputc.o(i.fputc) for fputc
    printf6.o(i.__0printf$6) refers to stdout.o(.data) for __stdout
    printf6.o(i.__0snprintf$6) refers to printf6.o(i._printf_core) for _printf_core
    printf6.o(i.__0snprintf$6) refers to printf6.o(i._snputc) for _snputc
    printf6.o(i.__0sprintf$6) refers to printf6.o(i._printf_core) for _printf_core
    printf6.o(i.__0sprintf$6) refers to printf6.o(i._sputc) for _sputc
    printf6.o(i.__0vfprintf$6) refers to printf6.o(i._printf_core) for _printf_core
    printf6.o(i.__0vfprintf$6) refers to fputc.o(i.fputc) for fputc
    printf6.o(i.__0vprintf$6) refers to printf6.o(i._printf_core) for _printf_core
    printf6.o(i.__0vprintf$6) refers to fputc.o(i.fputc) for fputc
    printf6.o(i.__0vprintf$6) refers to stdout.o(.data) for __stdout
    printf6.o(i.__0vsnprintf$6) refers to printf6.o(i._printf_core) for _printf_core
    printf6.o(i.__0vsnprintf$6) refers to printf6.o(i._snputc) for _snputc
    printf6.o(i.__0vsprintf$6) refers to printf6.o(i._printf_core) for _printf_core
    printf6.o(i.__0vsprintf$6) refers to printf6.o(i._sputc) for _sputc
    printf6.o(i._printf_core) refers to printf6.o(i._printf_pre_padding) for _printf_pre_padding
    printf6.o(i._printf_core) refers to uidiv.o(.text) for __aeabi_uidivmod
    printf6.o(i._printf_core) refers to printf6.o(i._printf_post_padding) for _printf_post_padding
    printf7.o(i.__0fprintf$7) refers to printf7.o(i._printf_core) for _printf_core
    printf7.o(i.__0fprintf$7) refers to fputc.o(i.fputc) for fputc
    printf7.o(i.__0printf$7) refers to printf7.o(i._printf_core) for _printf_core
    printf7.o(i.__0printf$7) refers to fputc.o(i.fputc) for fputc
    printf7.o(i.__0printf$7) refers to stdout.o(.data) for __stdout
    printf7.o(i.__0snprintf$7) refers to printf7.o(i._printf_core) for _printf_core
    printf7.o(i.__0snprintf$7) refers to printf7.o(i._snputc) for _snputc
    printf7.o(i.__0sprintf$7) refers to printf7.o(i._printf_core) for _printf_core
    printf7.o(i.__0sprintf$7) refers to printf7.o(i._sputc) for _sputc
    printf7.o(i.__0vfprintf$7) refers to printf7.o(i._printf_core) for _printf_core
    printf7.o(i.__0vfprintf$7) refers to fputc.o(i.fputc) for fputc
    printf7.o(i.__0vprintf$7) refers to printf7.o(i._printf_core) for _printf_core
    printf7.o(i.__0vprintf$7) refers to fputc.o(i.fputc) for fputc
    printf7.o(i.__0vprintf$7) refers to stdout.o(.data) for __stdout
    printf7.o(i.__0vsnprintf$7) refers to printf7.o(i._printf_core) for _printf_core
    printf7.o(i.__0vsnprintf$7) refers to printf7.o(i._snputc) for _snputc
    printf7.o(i.__0vsprintf$7) refers to printf7.o(i._printf_core) for _printf_core
    printf7.o(i.__0vsprintf$7) refers to printf7.o(i._sputc) for _sputc
    printf7.o(i._printf_core) refers to printf7.o(i._printf_pre_padding) for _printf_pre_padding
    printf7.o(i._printf_core) refers to uldiv.o(.text) for __aeabi_uldivmod
    printf7.o(i._printf_core) refers to printf7.o(i._printf_post_padding) for _printf_post_padding
    printf8.o(i.__0fprintf$8) refers to printf8.o(i._printf_core) for _printf_core
    printf8.o(i.__0fprintf$8) refers to fputc.o(i.fputc) for fputc
    printf8.o(i.__0printf$8) refers to printf8.o(i._printf_core) for _printf_core
    printf8.o(i.__0printf$8) refers to fputc.o(i.fputc) for fputc
    printf8.o(i.__0printf$8) refers to stdout.o(.data) for __stdout
    printf8.o(i.__0snprintf$8) refers to printf8.o(i._printf_core) for _printf_core
    printf8.o(i.__0snprintf$8) refers to printf8.o(i._snputc) for _snputc
    printf8.o(i.__0sprintf$8) refers to printf8.o(i._printf_core) for _printf_core
    printf8.o(i.__0sprintf$8) refers to printf8.o(i._sputc) for _sputc
    printf8.o(i.__0vfprintf$8) refers to printf8.o(i._printf_core) for _printf_core
    printf8.o(i.__0vfprintf$8) refers to fputc.o(i.fputc) for fputc
    printf8.o(i.__0vprintf$8) refers to printf8.o(i._printf_core) for _printf_core
    printf8.o(i.__0vprintf$8) refers to fputc.o(i.fputc) for fputc
    printf8.o(i.__0vprintf$8) refers to stdout.o(.data) for __stdout
    printf8.o(i.__0vsnprintf$8) refers to printf8.o(i._printf_core) for _printf_core
    printf8.o(i.__0vsnprintf$8) refers to printf8.o(i._snputc) for _snputc
    printf8.o(i.__0vsprintf$8) refers to printf8.o(i._printf_core) for _printf_core
    printf8.o(i.__0vsprintf$8) refers to printf8.o(i._sputc) for _sputc
    printf8.o(i._printf_core) refers to printf8.o(i._printf_pre_padding) for _printf_pre_padding
    printf8.o(i._printf_core) refers to uldiv.o(.text) for __aeabi_uldivmod
    printf8.o(i._printf_core) refers to printf8.o(i._printf_post_padding) for _printf_post_padding
    printfa.o(i.__0fprintf) refers (Special) to iusefp.o(.text) for __I$use$fp
    printfa.o(i.__0fprintf) refers to printfa.o(i._printf_core) for _printf_core
    printfa.o(i.__0fprintf) refers to fputc.o(i.fputc) for fputc
    printfa.o(i.__0printf) refers (Special) to iusefp.o(.text) for __I$use$fp
    printfa.o(i.__0printf) refers to printfa.o(i._printf_core) for _printf_core
    printfa.o(i.__0printf) refers to fputc.o(i.fputc) for fputc
    printfa.o(i.__0printf) refers to stdout.o(.data) for __stdout
    printfa.o(i.__0snprintf) refers (Special) to iusefp.o(.text) for __I$use$fp
    printfa.o(i.__0snprintf) refers to printfa.o(i._printf_core) for _printf_core
    printfa.o(i.__0snprintf) refers to printfa.o(i._snputc) for _snputc
    printfa.o(i.__0sprintf) refers (Special) to iusefp.o(.text) for __I$use$fp
    printfa.o(i.__0sprintf) refers to printfa.o(i._printf_core) for _printf_core
    printfa.o(i.__0sprintf) refers to printfa.o(i._sputc) for _sputc
    printfa.o(i.__0vfprintf) refers (Special) to iusefp.o(.text) for __I$use$fp
    printfa.o(i.__0vfprintf) refers to printfa.o(i._printf_core) for _printf_core
    printfa.o(i.__0vfprintf) refers to fputc.o(i.fputc) for fputc
    printfa.o(i.__0vprintf) refers (Special) to iusefp.o(.text) for __I$use$fp
    printfa.o(i.__0vprintf) refers to printfa.o(i._printf_core) for _printf_core
    printfa.o(i.__0vprintf) refers to fputc.o(i.fputc) for fputc
    printfa.o(i.__0vprintf) refers to stdout.o(.data) for __stdout
    printfa.o(i.__0vsnprintf) refers (Special) to iusefp.o(.text) for __I$use$fp
    printfa.o(i.__0vsnprintf) refers to printfa.o(i._printf_core) for _printf_core
    printfa.o(i.__0vsnprintf) refers to printfa.o(i._snputc) for _snputc
    printfa.o(i.__0vsprintf) refers (Special) to iusefp.o(.text) for __I$use$fp
    printfa.o(i.__0vsprintf) refers to printfa.o(i._printf_core) for _printf_core
    printfa.o(i.__0vsprintf) refers to printfa.o(i._sputc) for _sputc
    printfa.o(i._fp_digits) refers (Special) to iusefp.o(.text) for __I$use$fp
    printfa.o(i._fp_digits) refers to dmul.o(.text) for __aeabi_dmul
    printfa.o(i._fp_digits) refers to ddiv.o(.text) for __aeabi_ddiv
    printfa.o(i._fp_digits) refers to cdrcmple.o(.text) for __aeabi_cdrcmple
    printfa.o(i._fp_digits) refers to dadd.o(.text) for __aeabi_dadd
    printfa.o(i._fp_digits) refers to dfixul.o(.text) for __aeabi_d2ulz
    printfa.o(i._fp_digits) refers to uldiv.o(.text) for __aeabi_uldivmod
    printfa.o(i._printf_core) refers (Special) to iusefp.o(.text) for __I$use$fp
    printfa.o(i._printf_core) refers to printfa.o(i._printf_pre_padding) for _printf_pre_padding
    printfa.o(i._printf_core) refers to uldiv.o(.text) for __aeabi_uldivmod
    printfa.o(i._printf_core) refers to printfa.o(i._printf_post_padding) for _printf_post_padding
    printfa.o(i._printf_core) refers to printfa.o(i._fp_digits) for _fp_digits
    printfa.o(i._printf_core) refers to uidiv.o(.text) for __aeabi_uidivmod
    printfa.o(i._printf_post_padding) refers (Special) to iusefp.o(.text) for __I$use$fp
    printfa.o(i._printf_pre_padding) refers (Special) to iusefp.o(.text) for __I$use$fp
    printfa.o(i._snputc) refers (Special) to iusefp.o(.text) for __I$use$fp
    printfa.o(i._sputc) refers (Special) to iusefp.o(.text) for __I$use$fp
    f2d.o(.text) refers (Special) to iusefp.o(.text) for __I$use$fp
    fputc.o(i.fputc) refers (Special) to iusesemip.o(.text) for __I$use$semihosting$fputc
    fputc.o(i.fputc) refers (Special) to semi.o(.text) for __semihosting_library_function
    fputc_h.o(i._fputc$hlt) refers (Special) to iusesemip.o(.text) for __I$use$semihosting$fputc
    fputc_h.o(i._fputc$hlt) refers (Special) to semi.o(.text) for __semihosting_library_function
    uldiv.o(.text) refers to llushr.o(.text) for __aeabi_llsr
    uldiv.o(.text) refers to llshl.o(.text) for __aeabi_llsl
    dadd.o(.text) refers (Special) to iusefp.o(.text) for __I$use$fp
    dadd.o(.text) refers to llshl.o(.text) for __aeabi_llsl
    dadd.o(.text) refers to llsshr.o(.text) for __aeabi_lasr
    dadd.o(.text) refers to depilogue.o(.text) for _double_epilogue
    dmul.o(.text) refers (Special) to iusefp.o(.text) for __I$use$fp
    dmul.o(.text) refers to depilogue.o(.text) for _double_epilogue
    ddiv.o(.text) refers (Special) to iusefp.o(.text) for __I$use$fp
    ddiv.o(.text) refers to depilogue.o(.text) for _double_round
    dfixul.o(.text) refers (Special) to iusefp.o(.text) for __I$use$fp
    dfixul.o(.text) refers to llushr.o(.text) for __aeabi_llsr
    dfixul.o(.text) refers to llshl.o(.text) for __aeabi_llsl
    cdrcmple.o(.text) refers (Special) to iusefp.o(.text) for __I$use$fp
    depilogue.o(.text) refers (Special) to iusefp.o(.text) for __I$use$fp
    depilogue.o(.text) refers to llshl.o(.text) for __aeabi_llsl
    depilogue.o(.text) refers to llushr.o(.text) for __aeabi_llsr


==============================================================================

Removing Unused input sections from the image.

    Removing hal_entry_1.o(.text), (0 bytes).
    Removing hal_entry_1.o(.ARM.exidx.text.sci_i2c_master_callback), (8 bytes).
    Removing hal_entry_1.o(.ARM.exidx.text.uart2_callback), (8 bytes).
    Removing hal_entry_1.o(.ARM.exidx.text.uart4_callback), (8 bytes).
    Removing hal_entry_1.o(.ARM.exidx.text.uart7_callback), (8 bytes).
    Removing hal_entry_1.o(.ARM.exidx.text.uart9_callback), (8 bytes).
    Removing hal_entry_1.o(.ARM.exidx.text.uart8_callback), (8 bytes).
    Removing hal_entry_1.o(.ARM.exidx.text.hal_entry), (8 bytes).
    Removing hal_entry_1.o(.ARM.exidx.text.Hmi_SendCmd), (8 bytes).
    Removing hal_warmstart_1.o(.text), (0 bytes).
    Removing hal_warmstart_1.o(.ARM.exidx.text.R_BSP_WarmStart), (8 bytes).
    Removing driver_dht22_1.o(.text), (0 bytes).
    Removing driver_dht22_1.o(.ARM.exidx.text.Dht22_Read), (8 bytes).
    Removing driver_uart_1.o(.text), (0 bytes).
    Removing driver_uart_1.o(.ARM.exidx.text.Uart_Init), (8 bytes).
    Removing driver_uart_1.o(.ARM.exidx.text.Uart_StartRx), (8 bytes).
    Removing driver_uart_1.o(.ARM.exidx.text.Uart_Send), (8 bytes).
    Removing driver_uart_1.o(.ARM.exidx.text.Uart_Printf), (8 bytes).
    Removing driver_bh1750_1.o(.text), (0 bytes).
    Removing driver_bh1750_1.o(.ARM.exidx.text.Bh1750_Init), (8 bytes).
    Removing driver_bh1750_1.o(.ARM.exidx.text.bh1750_write_cmd), (8 bytes).
    Removing driver_bh1750_1.o(.ARM.exidx.text.Bh1750_ReadLux), (8 bytes).
    Removing startup.o(.text), (0 bytes).
    Removing startup.o(.ARM.exidx.text.Reset_Handler), (8 bytes).
    Removing startup.o(.ARM.exidx.text.Default_Handler), (8 bytes).
    Removing system.o(.text), (0 bytes).
    Removing system.o(.ARM.exidx.text.SystemInit), (8 bytes).
    Removing system.o(.text.R_BSP_WarmStart), (2 bytes).
    Removing system.o(.ARM.exidx.text.R_BSP_WarmStart), (8 bytes).
    Removing system.o(.ARM.exidx.text.SystemRuntimeInit), (8 bytes).
    Removing bsp_clocks.o(.text), (0 bytes).
    Removing bsp_clocks.o(.text.bsp_prv_operating_mode_set), (68 bytes).
    Removing bsp_clocks.o(.ARM.exidx.text.bsp_prv_operating_mode_set), (8 bytes).
    Removing bsp_clocks.o(.text.bsp_prv_prepare_pll), (24 bytes).
    Removing bsp_clocks.o(.ARM.exidx.text.bsp_prv_prepare_pll), (8 bytes).
    Removing bsp_clocks.o(.ARM.exidx.text.SystemCoreClockUpdate), (8 bytes).
    Removing bsp_clocks.o(.text.bsp_prv_clock_dividers_set), (12 bytes).
    Removing bsp_clocks.o(.ARM.exidx.text.bsp_prv_clock_dividers_set), (8 bytes).
    Removing bsp_clocks.o(.text.bsp_prv_clock_set), (204 bytes).
    Removing bsp_clocks.o(.ARM.exidx.text.bsp_prv_clock_set), (8 bytes).
    Removing bsp_clocks.o(.ARM.exidx.text.bsp_clock_init), (8 bytes).
    Removing bsp_clocks.o(.text.R_BSP_SubClockStabilizeWait), (8 bytes).
    Removing bsp_clocks.o(.ARM.exidx.text.R_BSP_SubClockStabilizeWait), (8 bytes).
    Removing bsp_clocks.o(.ARM.exidx.text.R_BSP_SubClockStabilizeWaitAfterReset), (8 bytes).
    Removing bsp_clocks.o(.text.R_BSP_OctaclkUpdate), (260 bytes).
    Removing bsp_clocks.o(.ARM.exidx.text.R_BSP_OctaclkUpdate), (8 bytes).
    Removing bsp_clocks.o(.text.R_BSP_SourceClockHzGet), (14 bytes).
    Removing bsp_clocks.o(.ARM.exidx.text.R_BSP_SourceClockHzGet), (8 bytes).
    Removing bsp_clocks.o(.ARM.exidx.text.R_BSP_Init_RTC), (8 bytes).
    Removing bsp_common.o(.text), (0 bytes).
    Removing bsp_common.o(.ARM.exidx.text.bsp_init_internal), (8 bytes).
    Removing bsp_common.o(.text.R_FSP_VersionGet), (14 bytes).
    Removing bsp_common.o(.ARM.exidx.text.R_FSP_VersionGet), (8 bytes).
    Removing bsp_common.o(.text.__aeabi_assert), (6 bytes).
    Removing bsp_common.o(.ARM.exidx.text.__aeabi_assert), (8 bytes).
    Removing bsp_delay.o(.text), (0 bytes).
    Removing bsp_delay.o(.ARM.exidx.text.R_BSP_SoftwareDelay), (8 bytes).
    Removing bsp_delay.o(.ARM.exidx.text.bsp_prv_software_delay_loop), (8 bytes).
    Removing bsp_group_irq.o(.text), (0 bytes).
    Removing bsp_group_irq.o(.text.R_BSP_GroupIrqWrite), (18 bytes).
    Removing bsp_group_irq.o(.ARM.exidx.text.R_BSP_GroupIrqWrite), (8 bytes).
    Removing bsp_group_irq.o(.ARM.exidx.text.NMI_Handler), (8 bytes).
    Removing bsp_guard.o(.text), (0 bytes).
    Removing bsp_io.o(.text), (0 bytes).
    Removing bsp_ipc.o(.text), (0 bytes).
    Removing bsp_irq.o(.text), (0 bytes).
    Removing bsp_irq.o(.ARM.exidx.text.bsp_irq_cfg), (8 bytes).
    Removing bsp_irq.o(.rodata.g_interrupt_event_link_select), (88 bytes).
    Removing bsp_macl.o(.text), (0 bytes).
    Removing bsp_ospi_b.o(.text), (0 bytes).
    Removing bsp_register_protection.o(.text), (0 bytes).
    Removing bsp_register_protection.o(.ARM.exidx.text.R_BSP_RegisterProtectEnable), (8 bytes).
    Removing bsp_register_protection.o(.ARM.exidx.text.R_BSP_RegisterProtectDisable), (8 bytes).
    Removing bsp_sbrk.o(.text), (0 bytes).
    Removing bsp_sdram.o(.text), (0 bytes).
    Removing bsp_security.o(.text), (0 bytes).
    Removing bsp_linker.o(.text), (0 bytes).
    Removing r_ioport.o(.text), (0 bytes).
    Removing r_ioport.o(.ARM.exidx.text.R_IOPORT_Open), (8 bytes).
    Removing r_ioport.o(.text.R_IOPORT_Close), (10 bytes).
    Removing r_ioport.o(.ARM.exidx.text.R_IOPORT_Close), (8 bytes).
    Removing r_ioport.o(.text.R_IOPORT_PinsCfg), (12 bytes).
    Removing r_ioport.o(.ARM.exidx.text.R_IOPORT_PinsCfg), (8 bytes).
    Removing r_ioport.o(.ARM.exidx.text.R_IOPORT_PinCfg), (8 bytes).
    Removing r_ioport.o(.text.R_IOPORT_PinEventInputRead), (40 bytes).
    Removing r_ioport.o(.ARM.exidx.text.R_IOPORT_PinEventInputRead), (8 bytes).
    Removing r_ioport.o(.text.R_IOPORT_PinEventOutputWrite), (82 bytes).
    Removing r_ioport.o(.ARM.exidx.text.R_IOPORT_PinEventOutputWrite), (8 bytes).
    Removing r_ioport.o(.ARM.exidx.text.R_IOPORT_PinRead), (8 bytes).
    Removing r_ioport.o(.ARM.exidx.text.R_IOPORT_PinWrite), (8 bytes).
    Removing r_ioport.o(.text.R_IOPORT_PortDirectionSet), (44 bytes).
    Removing r_ioport.o(.ARM.exidx.text.R_IOPORT_PortDirectionSet), (8 bytes).
    Removing r_ioport.o(.text.R_IOPORT_PortEventInputRead), (24 bytes).
    Removing r_ioport.o(.ARM.exidx.text.R_IOPORT_PortEventInputRead), (8 bytes).
    Removing r_ioport.o(.text.R_IOPORT_PortEventOutputWrite), (32 bytes).
    Removing r_ioport.o(.ARM.exidx.text.R_IOPORT_PortEventOutputWrite), (8 bytes).
    Removing r_ioport.o(.text.R_IOPORT_PortRead), (22 bytes).
    Removing r_ioport.o(.ARM.exidx.text.R_IOPORT_PortRead), (8 bytes).
    Removing r_ioport.o(.text.R_IOPORT_PortWrite), (32 bytes).
    Removing r_ioport.o(.ARM.exidx.text.R_IOPORT_PortWrite), (8 bytes).
    Removing r_ioport.o(.ARM.exidx.text.r_ioport_pins_config), (8 bytes).
    Removing r_ioport.o(.ARM.exidx.text.bsp_vbatt_init), (8 bytes).
    Removing r_ioport.o(.rodata.g_ioport_on_ioport), (52 bytes).
    Removing r_sci_i2c.o(.text), (0 bytes).
    Removing r_sci_i2c.o(.ARM.exidx.text.R_SCI_I2C_Open), (8 bytes).
    Removing r_sci_i2c.o(.ARM.exidx.text.R_SCI_I2C_Read), (8 bytes).
    Removing r_sci_i2c.o(.ARM.exidx.text.R_SCI_I2C_Write), (8 bytes).
    Removing r_sci_i2c.o(.ARM.exidx.text.R_SCI_I2C_Abort), (8 bytes).
    Removing r_sci_i2c.o(.ARM.exidx.text.R_SCI_I2C_SlaveAddressSet), (8 bytes).
    Removing r_sci_i2c.o(.ARM.exidx.text.R_SCI_I2C_CallbackSet), (8 bytes).
    Removing r_sci_i2c.o(.ARM.exidx.text.R_SCI_I2C_StatusGet), (8 bytes).
    Removing r_sci_i2c.o(.ARM.exidx.text.R_SCI_I2C_Close), (8 bytes).
    Removing r_sci_i2c.o(.ARM.exidx.text.sci_i2c_read_write), (8 bytes).
    Removing r_sci_i2c.o(.text.sci_i2c_notify), (48 bytes).
    Removing r_sci_i2c.o(.ARM.exidx.text.sci_i2c_notify), (8 bytes).
    Removing r_sci_i2c.o(.ARM.exidx.text.sci_i2c_txi_isr), (8 bytes).
    Removing r_sci_i2c.o(.ARM.exidx.text.sci_i2c_tei_isr), (8 bytes).
    Removing r_sci_uart.o(.text), (0 bytes).
    Removing r_sci_uart.o(.ARM.exidx.text.R_SCI_UART_Open), (8 bytes).
    Removing r_sci_uart.o(.ARM.exidx.text.R_SCI_UART_Read), (8 bytes).
    Removing r_sci_uart.o(.ARM.exidx.text.R_SCI_UART_Write), (8 bytes).
    Removing r_sci_uart.o(.text.R_SCI_UART_BaudSet), (104 bytes).
    Removing r_sci_uart.o(.ARM.exidx.text.R_SCI_UART_BaudSet), (8 bytes).
    Removing r_sci_uart.o(.text.R_SCI_UART_InfoGet), (12 bytes).
    Removing r_sci_uart.o(.ARM.exidx.text.R_SCI_UART_InfoGet), (8 bytes).
    Removing r_sci_uart.o(.text.R_SCI_UART_Abort), (34 bytes).
    Removing r_sci_uart.o(.ARM.exidx.text.R_SCI_UART_Abort), (8 bytes).
    Removing r_sci_uart.o(.text.R_SCI_UART_CallbackSet), (14 bytes).
    Removing r_sci_uart.o(.ARM.exidx.text.R_SCI_UART_CallbackSet), (8 bytes).
    Removing r_sci_uart.o(.text.R_SCI_UART_Close), (166 bytes).
    Removing r_sci_uart.o(.ARM.exidx.text.R_SCI_UART_Close), (8 bytes).
    Removing r_sci_uart.o(.text.R_SCI_UART_ReadStop), (14 bytes).
    Removing r_sci_uart.o(.ARM.exidx.text.R_SCI_UART_ReadStop), (8 bytes).
    Removing r_sci_uart.o(.text.R_SCI_UART_ReceiveSuspend), (4 bytes).
    Removing r_sci_uart.o(.ARM.exidx.text.R_SCI_UART_ReceiveSuspend), (8 bytes).
    Removing r_sci_uart.o(.text.R_SCI_UART_ReceiveResume), (4 bytes).
    Removing r_sci_uart.o(.ARM.exidx.text.R_SCI_UART_ReceiveResume), (8 bytes).
    Removing r_sci_uart.o(.text.R_SCI_UART_BaudCalculate), (388 bytes).
    Removing r_sci_uart.o(.ARM.exidx.text.R_SCI_UART_BaudCalculate), (8 bytes).
    Removing r_sci_uart.o(.ARM.exidx.text.sci_uart_txi_isr), (8 bytes).
    Removing r_sci_uart.o(.ARM.exidx.text.r_sci_uart_call_callback), (8 bytes).
    Removing r_sci_uart.o(.ARM.exidx.text.sci_uart_rxi_isr), (8 bytes).
    Removing r_sci_uart.o(.ARM.exidx.text.sci_uart_tei_isr), (8 bytes).
    Removing r_sci_uart.o(.ARM.exidx.text.sci_uart_eri_isr), (8 bytes).
    Removing r_sci_uart.o(.rodata.g_uart_on_sci), (44 bytes).
    Removing r_sci_uart.o(.rodata.g_async_baud), (13 bytes).
    Removing r_sci_uart.o(.rodata.g_div_coefficient), (26 bytes).
    Removing common_data.o(.text), (0 bytes).
    Removing common_data.o(.text.g_common_init), (2 bytes).
    Removing common_data.o(.ARM.exidx.text.g_common_init), (8 bytes).
    Removing common_data.o(.rodata.g_ioport), (12 bytes).
    Removing hal_data.o(.text), (0 bytes).
    Removing hal_data.o(.text.g_hal_init), (4 bytes).
    Removing hal_data.o(.ARM.exidx.text.g_hal_init), (8 bytes).
    Removing hal_data.o(.rodata.g_uart8), (12 bytes).
    Removing hal_data.o(.rodata.g_uart9), (12 bytes).
    Removing hal_data.o(.rodata.g_uart7), (12 bytes).
    Removing hal_data.o(.rodata.g_uart4), (12 bytes).
    Removing hal_data.o(.rodata.g_uart2), (12 bytes).
    Removing main.o(.text), (0 bytes).
    Removing main.o(.ARM.exidx.text.main), (8 bytes).
    Removing main.o(.ARM.use_no_argv), (4 bytes).
    Removing pin_data.o(.text), (0 bytes).
    Removing vector_data.o(.text), (0 bytes).

164 unused section(s) (total 2741 bytes) removed from the image.

==============================================================================

Image Symbol Table

    Local Symbols

    Symbol Name                              Value     Ov Type        Size  Object(Section)

    ../clib/division.s                       0x00000000   Number         0  aeabi_sdiv.o ABSOLUTE
    ../clib/microlib/division.c              0x00000000   Number         0  ldiv.o ABSOLUTE
    ../clib/microlib/division.c              0x00000000   Number         0  uidiv.o ABSOLUTE
    ../clib/microlib/division.c              0x00000000   Number         0  uldiv.o ABSOLUTE
    ../clib/microlib/longlong.c              0x00000000   Number         0  llshl.o ABSOLUTE
    ../clib/microlib/longlong.c              0x00000000   Number         0  llushr.o ABSOLUTE
    ../clib/microlib/longlong.c              0x00000000   Number         0  llsshr.o ABSOLUTE
    ../clib/microlib/printf/printf.c         0x00000000   Number         0  printfb.o ABSOLUTE
    ../clib/microlib/printf/printf.c         0x00000000   Number         0  printf0.o ABSOLUTE
    ../clib/microlib/printf/printf.c         0x00000000   Number         0  printf1.o ABSOLUTE
    ../clib/microlib/printf/printf.c         0x00000000   Number         0  printf2.o ABSOLUTE
    ../clib/microlib/printf/printf.c         0x00000000   Number         0  printf3.o ABSOLUTE
    ../clib/microlib/printf/printf.c         0x00000000   Number         0  printf4.o ABSOLUTE
    ../clib/microlib/printf/printf.c         0x00000000   Number         0  printf5.o ABSOLUTE
    ../clib/microlib/printf/printf.c         0x00000000   Number         0  printf6.o ABSOLUTE
    ../clib/microlib/printf/printf.c         0x00000000   Number         0  printf7.o ABSOLUTE
    ../clib/microlib/printf/printf.c         0x00000000   Number         0  printf8.o ABSOLUTE
    ../clib/microlib/printf/printf.c         0x00000000   Number         0  printfa.o ABSOLUTE
    ../clib/microlib/printf/stubs.s          0x00000000   Number         0  printfstubs.o ABSOLUTE
    ../clib/microlib/stdio/fputc.c           0x00000000   Number         0  fputc.o ABSOLUTE
    ../clib/microlib/stdio/fputc.c           0x00000000   Number         0  fputc_h.o ABSOLUTE
    ../clib/microlib/stdio/semi.s            0x00000000   Number         0  semi.o ABSOLUTE
    ../clib/microlib/stdio/streams.c         0x00000000   Number         0  stdout.o ABSOLUTE
    ../clib/microlib/string/memcmp.c         0x00000000   Number         0  memcmp.o ABSOLUTE
    ../clib/microlib/string/memcpy.c         0x00000000   Number         0  memcpya.o ABSOLUTE
    ../clib/microlib/string/memcpy.c         0x00000000   Number         0  memcpyb.o ABSOLUTE
    ../clib/microlib/string/memset.c         0x00000000   Number         0  memseta.o ABSOLUTE
    ../clib/microlib/stubs.s                 0x00000000   Number         0  iusefp.o ABSOLUTE
    ../clib/microlib/stubs.s                 0x00000000   Number         0  iusesemip.o ABSOLUTE
    ../fplib/microlib/f2d.c                  0x00000000   Number         0  f2d.o ABSOLUTE
    ../fplib/microlib/fpadd.c                0x00000000   Number         0  dadd.o ABSOLUTE
    ../fplib/microlib/fpdiv.c                0x00000000   Number         0  ddiv.o ABSOLUTE
    ../fplib/microlib/fpepilogue.c           0x00000000   Number         0  depilogue.o ABSOLUTE
    ../fplib/microlib/fpfix.c                0x00000000   Number         0  dfixul.o ABSOLUTE
    ../fplib/microlib/fpmul.c                0x00000000   Number         0  dmul.o ABSOLUTE
    __tagsym$$used.0                         0x00000000   Number         0  startup.o(.fixed_vectors)
    bsp_clocks.c                             0x00000000   Number         0  bsp_clocks.o ABSOLUTE
    bsp_common.c                             0x00000000   Number         0  bsp_common.o ABSOLUTE
    bsp_delay.c                              0x00000000   Number         0  bsp_delay.o ABSOLUTE
    bsp_group_irq.c                          0x00000000   Number         0  bsp_group_irq.o ABSOLUTE
    bsp_guard.c                              0x00000000   Number         0  bsp_guard.o ABSOLUTE
    bsp_io.c                                 0x00000000   Number         0  bsp_io.o ABSOLUTE
    bsp_ipc.c                                0x00000000   Number         0  bsp_ipc.o ABSOLUTE
    bsp_irq.c                                0x00000000   Number         0  bsp_irq.o ABSOLUTE
    bsp_linker.c                             0x00000000   Number         0  bsp_linker.o ABSOLUTE
    bsp_macl.c                               0x00000000   Number         0  bsp_macl.o ABSOLUTE
    bsp_ospi_b.c                             0x00000000   Number         0  bsp_ospi_b.o ABSOLUTE
    bsp_register_protection.c                0x00000000   Number         0  bsp_register_protection.o ABSOLUTE
    bsp_sbrk.c                               0x00000000   Number         0  bsp_sbrk.o ABSOLUTE
    bsp_sdram.c                              0x00000000   Number         0  bsp_sdram.o ABSOLUTE
    bsp_security.c                           0x00000000   Number         0  bsp_security.o ABSOLUTE
    cdrcmple.s                               0x00000000   Number         0  cdrcmple.o ABSOLUTE
    common_data.c                            0x00000000   Number         0  common_data.o ABSOLUTE
    dc.s                                     0x00000000   Number         0  dc.o ABSOLUTE
    driver_bh1750.c                          0x00000000   Number         0  driver_bh1750_1.o ABSOLUTE
    driver_dht22.c                           0x00000000   Number         0  driver_dht22_1.o ABSOLUTE
    driver_uart.c                            0x00000000   Number         0  driver_uart_1.o ABSOLUTE
    hal_data.c                               0x00000000   Number         0  hal_data.o ABSOLUTE
    hal_entry.c                              0x00000000   Number         0  hal_entry_1.o ABSOLUTE
    hal_warmstart.c                          0x00000000   Number         0  hal_warmstart_1.o ABSOLUTE
    main.c                                   0x00000000   Number         0  main.o ABSOLUTE
    pin_data.c                               0x00000000   Number         0  pin_data.o ABSOLUTE
    r_ioport.c                               0x00000000   Number         0  r_ioport.o ABSOLUTE
    r_sci_i2c.c                              0x00000000   Number         0  r_sci_i2c.o ABSOLUTE
    r_sci_uart.c                             0x00000000   Number         0  r_sci_uart.o ABSOLUTE
    startup.c                                0x00000000   Number         0  startup.o ABSOLUTE
    system.c                                 0x00000000   Number         0  system.o ABSOLUTE
    vector_data.c                            0x00000000   Number         0  vector_data.o ABSOLUTE
    __tagsym$$used.0                         0x00000040   Number         0  vector_data.o(.application_vectors)
    .text                                    0x000000ec   Section        0  memcpya.o(.text)
    .text                                    0x00000110   Section        0  memseta.o(.text)
    .text                                    0x00000134   Section        0  memcmp.o(.text)
    .text                                    0x0000014e   Section        0  f2d.o(.text)
    .text                                    0x00000174   Section        0  uidiv.o(.text)
    .text                                    0x000001a0   Section        0  uldiv.o(.text)
    .text                                    0x00000202   Section        0  iusefp.o(.text)
    .text                                    0x00000202   Section        0  dadd.o(.text)
    .text                                    0x00000350   Section        0  dmul.o(.text)
    .text                                    0x00000434   Section        0  ddiv.o(.text)
    .text                                    0x00000512   Section        0  dfixul.o(.text)
    .text                                    0x00000544   Section       48  cdrcmple.o(.text)
    .text                                    0x00000574   Section        0  llshl.o(.text)
    .text                                    0x00000592   Section        0  llushr.o(.text)
    .text                                    0x000005b2   Section        0  llsshr.o(.text)
    .text                                    0x000005d6   Section        0  depilogue.o(.text)
    [Anonymous Symbol]                       0x00000690   Section        0  driver_bh1750_1.o(.text.Bh1750_Init)
    [Anonymous Symbol]                       0x000006d8   Section        0  driver_bh1750_1.o(.text.Bh1750_ReadLux)
    [Anonymous Symbol]                       0x00000784   Section        0  startup.o(.text.Default_Handler)
    [Anonymous Symbol]                       0x00000788   Section        0  driver_dht22_1.o(.text.Dht22_Read)
    Hmi_SendCmd                              0x00000935   Thumb Code    52  hal_entry_1.o(.text.Hmi_SendCmd)
    [Anonymous Symbol]                       0x00000934   Section        0  hal_entry_1.o(.text.Hmi_SendCmd)
    [Anonymous Symbol]                       0x0000096c   Section        0  bsp_group_irq.o(.text.NMI_Handler)
    [Anonymous Symbol]                       0x000009b0   Section        0  bsp_clocks.o(.text.R_BSP_Init_RTC)
    [Anonymous Symbol]                       0x00000a2a   Section        0  bsp_register_protection.o(.text.R_BSP_RegisterProtectDisable)
    [Anonymous Symbol]                       0x00000a78   Section        0  bsp_register_protection.o(.text.R_BSP_RegisterProtectEnable)
    [Anonymous Symbol]                       0x00000aca   Section        0  bsp_delay.o(.text.R_BSP_SoftwareDelay)
    [Anonymous Symbol]                       0x00000b4e   Section        0  bsp_clocks.o(.text.R_BSP_SubClockStabilizeWaitAfterReset)
    [Anonymous Symbol]                       0x00000b50   Section        0  hal_warmstart_1.o(.text.R_BSP_WarmStart)
    [Anonymous Symbol]                       0x00000b6a   Section        0  r_ioport.o(.text.R_IOPORT_Open)
    [Anonymous Symbol]                       0x00000b80   Section        0  r_ioport.o(.text.R_IOPORT_PinCfg)
    [Anonymous Symbol]                       0x00000c32   Section        0  r_ioport.o(.text.R_IOPORT_PinRead)
    [Anonymous Symbol]                       0x00000c54   Section        0  r_ioport.o(.text.R_IOPORT_PinWrite)
    [Anonymous Symbol]                       0x00000c7c   Section        0  r_sci_i2c.o(.text.R_SCI_I2C_Abort)
    [Anonymous Symbol]                       0x00000ca4   Section        0  r_sci_i2c.o(.text.R_SCI_I2C_CallbackSet)
    [Anonymous Symbol]                       0x00000cb2   Section        0  r_sci_i2c.o(.text.R_SCI_I2C_Close)
    [Anonymous Symbol]                       0x00000d08   Section        0  r_sci_i2c.o(.text.R_SCI_I2C_Open)
    [Anonymous Symbol]                       0x00000e62   Section        0  r_sci_i2c.o(.text.R_SCI_I2C_Read)
    [Anonymous Symbol]                       0x00000e72   Section        0  r_sci_i2c.o(.text.R_SCI_I2C_SlaveAddressSet)
    [Anonymous Symbol]                       0x00000e7c   Section        0  r_sci_i2c.o(.text.R_SCI_I2C_StatusGet)
    [Anonymous Symbol]                       0x00000e94   Section        0  r_sci_i2c.o(.text.R_SCI_I2C_Write)
    [Anonymous Symbol]                       0x00000ea4   Section        0  r_sci_uart.o(.text.R_SCI_UART_Open)
    [Anonymous Symbol]                       0x000011e0   Section        0  r_sci_uart.o(.text.R_SCI_UART_Read)
    [Anonymous Symbol]                       0x000011ea   Section        0  r_sci_uart.o(.text.R_SCI_UART_Write)
    [Anonymous Symbol]                       0x00001238   Section        0  startup.o(.text.Reset_Handler)
    [Anonymous Symbol]                       0x00001242   Section        0  bsp_clocks.o(.text.SystemCoreClockUpdate)
    [Anonymous Symbol]                       0x00001270   Section        0  system.o(.text.SystemInit)
    SystemRuntimeInit                        0x00001315   Thumb Code    90  system.o(.text.SystemRuntimeInit)
    [Anonymous Symbol]                       0x00001314   Section        0  system.o(.text.SystemRuntimeInit)
    [Anonymous Symbol]                       0x0000136e   Section        0  driver_uart_1.o(.text.Uart_Init)
    [Anonymous Symbol]                       0x00001378   Section        0  driver_uart_1.o(.text.Uart_Printf)
    [Anonymous Symbol]                       0x000013c8   Section        0  driver_uart_1.o(.text.Uart_Send)
    [Anonymous Symbol]                       0x000013e8   Section        0  driver_uart_1.o(.text.Uart_StartRx)
    bh1750_write_cmd                         0x000013f5   Thumb Code   104  driver_bh1750_1.o(.text.bh1750_write_cmd)
    [Anonymous Symbol]                       0x000013f4   Section        0  driver_bh1750_1.o(.text.bh1750_write_cmd)
    [Anonymous Symbol]                       0x0000145c   Section        0  bsp_clocks.o(.text.bsp_clock_init)
    [Anonymous Symbol]                       0x00001598   Section        0  bsp_common.o(.text.bsp_init_internal)
    [Anonymous Symbol]                       0x0000159c   Section        0  bsp_irq.o(.text.bsp_irq_cfg)
    sw_delay_loop                            0x00001626   Number         0  bsp_delay.o(.text.bsp_prv_software_delay_loop)
    [Anonymous Symbol]                       0x00001626   Section        0  bsp_delay.o(.text.bsp_prv_software_delay_loop)
    bsp_vbatt_init                           0x00001631   Thumb Code   204  r_ioport.o(.text.bsp_vbatt_init)
    [Anonymous Symbol]                       0x00001630   Section        0  r_ioport.o(.text.bsp_vbatt_init)
    g_vbatt_pins_input                       0x000016fc   Number         0  r_ioport.o(.text.bsp_vbatt_init)
    [Anonymous Symbol]                       0x00001708   Section        0  hal_entry_1.o(.text.hal_entry)
    [Anonymous Symbol]                       0x00001efc   Section        0  main.o(.text.main)
    r_ioport_pins_config                     0x00001f09   Thumb Code   192  r_ioport.o(.text.r_ioport_pins_config)
    [Anonymous Symbol]                       0x00001f08   Section        0  r_ioport.o(.text.r_ioport_pins_config)
    r_sci_uart_call_callback                 0x00001fc9   Thumb Code    64  r_sci_uart.o(.text.r_sci_uart_call_callback)
    [Anonymous Symbol]                       0x00001fc8   Section        0  r_sci_uart.o(.text.r_sci_uart_call_callback)
    [Anonymous Symbol]                       0x00002008   Section        0  hal_entry_1.o(.text.sci_i2c_master_callback)
    sci_i2c_read_write                       0x0000203b   Thumb Code   152  r_sci_i2c.o(.text.sci_i2c_read_write)
    [Anonymous Symbol]                       0x0000203a   Section        0  r_sci_i2c.o(.text.sci_i2c_read_write)
    [Anonymous Symbol]                       0x000020d2   Section        0  r_sci_i2c.o(.text.sci_i2c_tei_isr)
    [Anonymous Symbol]                       0x000021ee   Section        0  r_sci_i2c.o(.text.sci_i2c_txi_isr)
    [Anonymous Symbol]                       0x00002316   Section        0  r_sci_uart.o(.text.sci_uart_eri_isr)
    [Anonymous Symbol]                       0x00002380   Section        0  r_sci_uart.o(.text.sci_uart_rxi_isr)
    [Anonymous Symbol]                       0x00002408   Section        0  r_sci_uart.o(.text.sci_uart_tei_isr)
    [Anonymous Symbol]                       0x00002452   Section        0  r_sci_uart.o(.text.sci_uart_txi_isr)
    [Anonymous Symbol]                       0x000024da   Section        0  hal_entry_1.o(.text.uart2_callback)
    [Anonymous Symbol]                       0x000024f0   Section        0  hal_entry_1.o(.text.uart4_callback)
    [Anonymous Symbol]                       0x00002518   Section        0  hal_entry_1.o(.text.uart7_callback)
    [Anonymous Symbol]                       0x0000252e   Section        0  hal_entry_1.o(.text.uart8_callback)
    [Anonymous Symbol]                       0x00002556   Section        0  hal_entry_1.o(.text.uart9_callback)
    i.__0snprintf                            0x00002580   Section        0  printfa.o(i.__0snprintf)
    i.__0vsnprintf                           0x000025b4   Section        0  printfa.o(i.__0vsnprintf)
    _fp_digits                               0x000025e9   Thumb Code   366  printfa.o(i._fp_digits)
    i._fp_digits                             0x000025e8   Section        0  printfa.o(i._fp_digits)
    _printf_core                             0x0000276d   Thumb Code  1744  printfa.o(i._printf_core)
    i._printf_core                           0x0000276c   Section        0  printfa.o(i._printf_core)
    _printf_post_padding                     0x00002e49   Thumb Code    36  printfa.o(i._printf_post_padding)
    i._printf_post_padding                   0x00002e48   Section        0  printfa.o(i._printf_post_padding)
    _printf_pre_padding                      0x00002e6d   Thumb Code    46  printfa.o(i._printf_pre_padding)
    i._printf_pre_padding                    0x00002e6c   Section        0  printfa.o(i._printf_pre_padding)
    _snputc                                  0x00002e9b   Thumb Code    22  printfa.o(i._snputc)
    i._snputc                                0x00002e9a   Section        0  printfa.o(i._snputc)
    Task_Face.reco_cmd                       0x00002eb0   Data           8  hal_entry_1.o(.rodata.Task_Face.reco_cmd)
    [Anonymous Symbol]                       0x00002eb0   Section        0  hal_entry_1.o(.rodata.Task_Face.reco_cmd)
    Task_HMI.enroll_cmd                      0x00002eb8   Data           6  hal_entry_1.o(.rodata.Task_HMI.enroll_cmd)
    [Anonymous Symbol]                       0x00002eb8   Section        0  hal_entry_1.o(.rodata.Task_HMI.enroll_cmd)
    Task_HMI.reset_cmd                       0x00002ebe   Data           6  hal_entry_1.o(.rodata.Task_HMI.reset_cmd)
    [Anonymous Symbol]                       0x00002ebe   Section        0  hal_entry_1.o(.rodata.Task_HMI.reset_cmd)
    copy_list                                0x00002ec4   Data         128  bsp_linker.o(.rodata.copy_list)
    [Anonymous Symbol]                       0x00002ec4   Section        0  bsp_linker.o(.rodata.copy_list)
    g_prcr_masks                             0x000030a4   Data          10  bsp_register_protection.o(.rodata.g_prcr_masks)
    [Anonymous Symbol]                       0x000030a4   Section        0  bsp_register_protection.o(.rodata.g_prcr_masks)
    __tagsym$$used.10                        0x000032e0   Number         0  bsp_linker.o(.rodata.gp_ddsc_DATA_FLASH_END)
    __tagsym$$used.9                         0x000032e4   Number         0  bsp_linker.o(.rodata.gp_ddsc_DATA_FLASH_START)
    __tagsym$$used.12                        0x000032e8   Number         0  bsp_linker.o(.rodata.gp_ddsc_FLASH_END)
    __tagsym$$used.13                        0x000032ec   Number         0  bsp_linker.o(.rodata.gp_ddsc_FLASH_NSC)
    __tagsym$$used.11                        0x000032f0   Number         0  bsp_linker.o(.rodata.gp_ddsc_FLASH_START)
    __tagsym$$used.24                        0x000032f4   Number         0  bsp_linker.o(.rodata.gp_ddsc_OPTION_SETTING_BANKSEL_END)
    __tagsym$$used.32                        0x000032f8   Number         0  bsp_linker.o(.rodata.gp_ddsc_OPTION_SETTING_BANKSEL_SEC_END)
    __tagsym$$used.31                        0x000032fc   Number         0  bsp_linker.o(.rodata.gp_ddsc_OPTION_SETTING_BANKSEL_SEC_START)
    __tagsym$$used.40                        0x00003300   Number         0  bsp_linker.o(.rodata.gp_ddsc_OPTION_SETTING_BANKSEL_SEL_END)
    __tagsym$$used.39                        0x00003304   Number         0  bsp_linker.o(.rodata.gp_ddsc_OPTION_SETTING_BANKSEL_SEL_START)
    __tagsym$$used.23                        0x00003308   Number         0  bsp_linker.o(.rodata.gp_ddsc_OPTION_SETTING_BANKSEL_START)
    __tagsym$$used.26                        0x0000330c   Number         0  bsp_linker.o(.rodata.gp_ddsc_OPTION_SETTING_BPS_END)
    __tagsym$$used.34                        0x00003310   Number         0  bsp_linker.o(.rodata.gp_ddsc_OPTION_SETTING_BPS_SEC_END)
    __tagsym$$used.33                        0x00003314   Number         0  bsp_linker.o(.rodata.gp_ddsc_OPTION_SETTING_BPS_SEC_START)
    __tagsym$$used.42                        0x00003318   Number         0  bsp_linker.o(.rodata.gp_ddsc_OPTION_SETTING_BPS_SEL_END)
    __tagsym$$used.41                        0x0000331c   Number         0  bsp_linker.o(.rodata.gp_ddsc_OPTION_SETTING_BPS_SEL_START)
    __tagsym$$used.25                        0x00003320   Number         0  bsp_linker.o(.rodata.gp_ddsc_OPTION_SETTING_BPS_START)
    __tagsym$$used.20                        0x00003324   Number         0  bsp_linker.o(.rodata.gp_ddsc_OPTION_SETTING_DUALSEL_END)
    __tagsym$$used.19                        0x00003328   Number         0  bsp_linker.o(.rodata.gp_ddsc_OPTION_SETTING_DUALSEL_START)
    __tagsym$$used.18                        0x0000332c   Number         0  bsp_linker.o(.rodata.gp_ddsc_OPTION_SETTING_OFS0_END)
    __tagsym$$used.17                        0x00003330   Number         0  bsp_linker.o(.rodata.gp_ddsc_OPTION_SETTING_OFS0_START)
    __tagsym$$used.22                        0x00003334   Number         0  bsp_linker.o(.rodata.gp_ddsc_OPTION_SETTING_OFS1_END)
    __tagsym$$used.30                        0x00003338   Number         0  bsp_linker.o(.rodata.gp_ddsc_OPTION_SETTING_OFS1_SEC_END)
    __tagsym$$used.29                        0x0000333c   Number         0  bsp_linker.o(.rodata.gp_ddsc_OPTION_SETTING_OFS1_SEC_START)
    __tagsym$$used.38                        0x00003340   Number         0  bsp_linker.o(.rodata.gp_ddsc_OPTION_SETTING_OFS1_SEL_END)
    __tagsym$$used.37                        0x00003344   Number         0  bsp_linker.o(.rodata.gp_ddsc_OPTION_SETTING_OFS1_SEL_START)
    __tagsym$$used.21                        0x00003348   Number         0  bsp_linker.o(.rodata.gp_ddsc_OPTION_SETTING_OFS1_START)
    __tagsym$$used.28                        0x0000334c   Number         0  bsp_linker.o(.rodata.gp_ddsc_OPTION_SETTING_PBPS_END)
    __tagsym$$used.36                        0x00003350   Number         0  bsp_linker.o(.rodata.gp_ddsc_OPTION_SETTING_PBPS_SEC_END)
    __tagsym$$used.35                        0x00003354   Number         0  bsp_linker.o(.rodata.gp_ddsc_OPTION_SETTING_PBPS_SEC_START)
    __tagsym$$used.27                        0x00003358   Number         0  bsp_linker.o(.rodata.gp_ddsc_OPTION_SETTING_PBPS_START)
    __tagsym$$used.8                         0x0000335c   Number         0  bsp_linker.o(.rodata.gp_ddsc_OSPI0_CS0_END)
    __tagsym$$used.7                         0x00003360   Number         0  bsp_linker.o(.rodata.gp_ddsc_OSPI0_CS0_START)
    __tagsym$$used.6                         0x00003364   Number         0  bsp_linker.o(.rodata.gp_ddsc_OSPI0_CS1_END)
    __tagsym$$used.5                         0x00003368   Number         0  bsp_linker.o(.rodata.gp_ddsc_OSPI0_CS1_START)
    __tagsym$$used.4                         0x0000336c   Number         0  bsp_linker.o(.rodata.gp_ddsc_QSPI_FLASH_END)
    __tagsym$$used.3                         0x00003370   Number         0  bsp_linker.o(.rodata.gp_ddsc_QSPI_FLASH_START)
    __tagsym$$used.15                        0x00003374   Number         0  bsp_linker.o(.rodata.gp_ddsc_RAM_END)
    __tagsym$$used.16                        0x00003378   Number         0  bsp_linker.o(.rodata.gp_ddsc_RAM_NSC)
    __tagsym$$used.14                        0x0000337c   Number         0  bsp_linker.o(.rodata.gp_ddsc_RAM_START)
    nocache_list                             0x00003380   Data          16  bsp_linker.o(.rodata.nocache_list)
    [Anonymous Symbol]                       0x00003380   Section        0  bsp_linker.o(.rodata.nocache_list)
    .L.str.7                                 0x00003390   Data          23  hal_entry_1.o(.rodata.str1.1)
    [Anonymous Symbol]                       0x00003390   Section        0  hal_entry_1.o(.rodata.str1.1)
    .L.str.17                                0x000033a7   Data          37  hal_entry_1.o(.rodata.str1.1)
    .L.str.16                                0x000033cc   Data          43  hal_entry_1.o(.rodata.str1.1)
    .L.str.26                                0x000033f7   Data          32  hal_entry_1.o(.rodata.str1.1)
    .L.str.27                                0x00003417   Data          31  hal_entry_1.o(.rodata.str1.1)
    .L.str.14                                0x00003436   Data          36  hal_entry_1.o(.rodata.str1.1)
    .L.str.4                                 0x0000345a   Data          41  hal_entry_1.o(.rodata.str1.1)
    .L.str.21                                0x00003483   Data          38  hal_entry_1.o(.rodata.str1.1)
    .L.str.24                                0x000034a9   Data          38  hal_entry_1.o(.rodata.str1.1)
    .L.str.18                                0x000034cf   Data          37  hal_entry_1.o(.rodata.str1.1)
    .L.str.22                                0x000034f4   Data          37  hal_entry_1.o(.rodata.str1.1)
    .L.str.29                                0x00003519   Data          31  hal_entry_1.o(.rodata.str1.1)
    .L.str.12                                0x00003538   Data          26  hal_entry_1.o(.rodata.str1.1)
    .L.str.28                                0x00003552   Data          24  hal_entry_1.o(.rodata.str1.1)
    .L.str.5                                 0x0000356a   Data          15  hal_entry_1.o(.rodata.str1.1)
    .L.str.6                                 0x00003579   Data          15  hal_entry_1.o(.rodata.str1.1)
    .L.str.23                                0x00003588   Data          21  hal_entry_1.o(.rodata.str1.1)
    .L.str.19                                0x0000359d   Data          20  hal_entry_1.o(.rodata.str1.1)
    .L.str.25                                0x000035b1   Data          21  hal_entry_1.o(.rodata.str1.1)
    .L.str.20                                0x000035c6   Data          20  hal_entry_1.o(.rodata.str1.1)
    .L.str.13                                0x000035da   Data           6  hal_entry_1.o(.rodata.str1.1)
    .L.str.10                                0x000035e0   Data          11  hal_entry_1.o(.rodata.str1.1)
    .L.str.15                                0x000035eb   Data           6  hal_entry_1.o(.rodata.str1.1)
    .L.str.9                                 0x000035f1   Data           9  hal_entry_1.o(.rodata.str1.1)
    zero_list                                0x000035fc   Data          48  bsp_linker.o(.rodata.zero_list)
    [Anonymous Symbol]                       0x000035fc   Section        0  bsp_linker.o(.rodata.zero_list)
    __tagsym$$used.0                         0x0000362c   Number         0  bsp_common.o(.version)
    g_fsp_version                            0x0000362c   Data           4  bsp_common.o(.version)
    [Anonymous Symbol]                       0x0000362c   Section        0  bsp_common.o(.version)
    __tagsym$$used.1                         0x00003630   Number         0  bsp_common.o(.version)
    g_fsp_version_string                     0x00003630   Data           6  bsp_common.o(.version)
    [Anonymous Symbol]                       0x00003630   Section        0  bsp_common.o(.version)
    __tagsym$$used.2                         0x00003636   Number         0  bsp_common.o(.version)
    g_fsp_version_build_string               0x00003636   Data          68  bsp_common.o(.version)
    [Anonymous Symbol]                       0x00003636   Section        0  bsp_common.o(.version)
    __tagsym$$used.0                         0x0100a100   Number         0  bsp_linker.o(.option_setting_ofs0)
    g_bsp_cfg_option_setting_ofs0            0x0100a100   Data           4  bsp_linker.o(.option_setting_ofs0)
    [Anonymous Symbol]                       0x0100a100   Section        0  bsp_linker.o(.option_setting_ofs0)
    __tagsym$$used.1                         0x0100a200   Number         0  bsp_linker.o(.option_setting_ofs1_sec)
    g_bsp_cfg_option_setting_ofs1_sec        0x0100a200   Data           4  bsp_linker.o(.option_setting_ofs1_sec)
    [Anonymous Symbol]                       0x0100a200   Section        0  bsp_linker.o(.option_setting_ofs1_sec)
    __tagsym$$used.2                         0x0100a280   Number         0  bsp_linker.o(.option_setting_ofs1_sel)
    g_bsp_cfg_option_setting_ofs1_sel        0x0100a280   Data           4  bsp_linker.o(.option_setting_ofs1_sel)
    [Anonymous Symbol]                       0x0100a280   Section        0  bsp_linker.o(.option_setting_ofs1_sel)
    __tagsym$$used.1                         0x20000060   Number         0  startup.o(.bss.g_heap)
    __tagsym$$used.0                         0x20000460   Number         0  bsp_clocks.o(.bss.ram_noinit)
    g_clock_freq                             0x20000460   Data          28  bsp_clocks.o(.bss.ram_noinit)
    [Anonymous Symbol]                       0x20000460   Section        0  bsp_clocks.o(.bss.ram_noinit)
    Task_CO2.add_rest_count                  0x20000480   Data           1  hal_entry_1.o(.bss.Task_CO2.add_rest_count)
    [Anonymous Symbol]                       0x20000480   Section        0  hal_entry_1.o(.bss.Task_CO2.add_rest_count)
    Task_CO2.add_send_count                  0x20000482   Data           2  hal_entry_1.o(.bss.Task_CO2.add_send_count)
    [Anonymous Symbol]                       0x20000482   Section        0  hal_entry_1.o(.bss.Task_CO2.add_send_count)
    Task_CO2.low_co2_count                   0x20000484   Data           2  hal_entry_1.o(.bss.Task_CO2.low_co2_count)
    [Anonymous Symbol]                       0x20000484   Section        0  hal_entry_1.o(.bss.Task_CO2.low_co2_count)
    Task_CO2.rx_frame                        0x20000486   Data          16  hal_entry_1.o(.bss.Task_CO2.rx_frame)
    [Anonymous Symbol]                       0x20000486   Section        0  hal_entry_1.o(.bss.Task_CO2.rx_frame)
    Task_CO2.rx_index                        0x20000496   Data           1  hal_entry_1.o(.bss.Task_CO2.rx_index)
    [Anonymous Symbol]                       0x20000496   Section        0  hal_entry_1.o(.bss.Task_CO2.rx_index)
    Task_DHT22.dht22_read_tick               0x20000498   Data           4  hal_entry_1.o(.bss.Task_DHT22.dht22_read_tick)
    [Anonymous Symbol]                       0x20000498   Section        0  hal_entry_1.o(.bss.Task_DHT22.dht22_read_tick)
    Task_Face.sci9_rx_frame                  0x2000049c   Data         256  hal_entry_1.o(.bss.Task_Face.sci9_rx_frame)
    [Anonymous Symbol]                       0x2000049c   Section        0  hal_entry_1.o(.bss.Task_Face.sci9_rx_frame)
    Task_Face.sci9_rx_idle_tick              0x2000059c   Data           4  hal_entry_1.o(.bss.Task_Face.sci9_rx_idle_tick)
    [Anonymous Symbol]                       0x2000059c   Section        0  hal_entry_1.o(.bss.Task_Face.sci9_rx_idle_tick)
    Task_Face.sci9_rx_idx                    0x200005a0   Data           2  hal_entry_1.o(.bss.Task_Face.sci9_rx_idx)
    [Anonymous Symbol]                       0x200005a0   Section        0  hal_entry_1.o(.bss.Task_Face.sci9_rx_idx)
    Task_HMI.hmi_rx_frame                    0x200005a2   Data          64  hal_entry_1.o(.bss.Task_HMI.hmi_rx_frame)
    [Anonymous Symbol]                       0x200005a2   Section        0  hal_entry_1.o(.bss.Task_HMI.hmi_rx_frame)
    Task_HMI.hmi_rx_idle_tick                0x200005e4   Data           4  hal_entry_1.o(.bss.Task_HMI.hmi_rx_idle_tick)
    [Anonymous Symbol]                       0x200005e4   Section        0  hal_entry_1.o(.bss.Task_HMI.hmi_rx_idle_tick)
    Task_HMI.hmi_rx_idx                      0x200005e8   Data           2  hal_entry_1.o(.bss.Task_HMI.hmi_rx_idx)
    [Anonymous Symbol]                       0x200005e8   Section        0  hal_entry_1.o(.bss.Task_HMI.hmi_rx_idx)
    Task_Light.light_tick                    0x200005ec   Data           4  hal_entry_1.o(.bss.Task_Light.light_tick)
    [Anonymous Symbol]                       0x200005ec   Section        0  hal_entry_1.o(.bss.Task_Light.light_tick)
    Task_Uart8.rx_frame                      0x200005f0   Data         512  hal_entry_1.o(.bss.Task_Uart8.rx_frame)
    [Anonymous Symbol]                       0x200005f0   Section        0  hal_entry_1.o(.bss.Task_Uart8.rx_frame)
    Task_Uart8.rx_idle_tick                  0x200007f0   Data           4  hal_entry_1.o(.bss.Task_Uart8.rx_idle_tick)
    [Anonymous Symbol]                       0x200007f0   Section        0  hal_entry_1.o(.bss.Task_Uart8.rx_idle_tick)
    Task_Uart8.rx_idx                        0x200007f4   Data           2  hal_entry_1.o(.bss.Task_Uart8.rx_idx)
    [Anonymous Symbol]                       0x200007f4   Section        0  hal_entry_1.o(.bss.Task_Uart8.rx_idx)
    Uart_Printf.buffer                       0x200007f6   Data         256  driver_uart_1.o(.bss.Uart_Printf.buffer)
    [Anonymous Symbol]                       0x200007f6   Section        0  driver_uart_1.o(.bss.Uart_Printf.buffer)
    g_bh1750                                 0x200008f8   Data           8  hal_entry_1.o(.bss.g_bh1750)
    [Anonymous Symbol]                       0x200008f8   Section        0  hal_entry_1.o(.bss.g_bh1750)
    g_face_delay_tick                        0x20000940   Data           4  hal_entry_1.o(.bss.g_face_delay_tick)
    [Anonymous Symbol]                       0x20000940   Section        0  hal_entry_1.o(.bss.g_face_delay_tick)
    g_face_state                             0x20000944   Data           1  hal_entry_1.o(.bss.g_face_state)
    [Anonymous Symbol]                       0x20000944   Section        0  hal_entry_1.o(.bss.g_face_state)

    Global Symbols

    Symbol Name                              Value     Ov Type        Size  Object(Section)

    BuildAttributes$$THM_ISAv4$E$P$D$K$B$S$7EM$8M$VFPi5$EXTD16$VFPS$VFMA$PE$A:L22UL41UL21$X:L11$S22US41US21$IEEE1$IW$USESV6$~STKCKD$USESV7$WCHAR32$ENUMINT$~SHL$OSPACE$ROPI$MICROLIB$REQ8$PRES8$EABIv2 0x00000000   Number         0  anon$$obj.o ABSOLUTE
    Image$$__ddsc_FLASH_START$$Base          0x00000000   Number         0  anon$$obj.o ABSOLUTE
    __Vectors                                0x00000000   Data          64  startup.o(.fixed_vectors)
    _printf_a                                0x00000000   Number         0  printfstubs.o ABSOLUTE
    _printf_c                                0x00000000   Number         0  printfstubs.o ABSOLUTE
    _printf_charcount                        0x00000000   Number         0  printfstubs.o ABSOLUTE
    _printf_d                                0x00000000   Number         0  printfstubs.o ABSOLUTE
    _printf_e                                0x00000000   Number         0  printfstubs.o ABSOLUTE
    _printf_f                                0x00000000   Number         0  printfstubs.o ABSOLUTE
    _printf_flags                            0x00000000   Number         0  printfstubs.o ABSOLUTE
    _printf_fp_dec                           0x00000000   Number         0  printfstubs.o ABSOLUTE
    _printf_fp_hex                           0x00000000   Number         0  printfstubs.o ABSOLUTE
    _printf_g                                0x00000000   Number         0  printfstubs.o ABSOLUTE
    _printf_i                                0x00000000   Number         0  printfstubs.o ABSOLUTE
    _printf_int_dec                          0x00000000   Number         0  printfstubs.o ABSOLUTE
    _printf_l                                0x00000000   Number         0  printfstubs.o ABSOLUTE
    _printf_lc                               0x00000000   Number         0  printfstubs.o ABSOLUTE
    _printf_ll                               0x00000000   Number         0  printfstubs.o ABSOLUTE
    _printf_lld                              0x00000000   Number         0  printfstubs.o ABSOLUTE
    _printf_lli                              0x00000000   Number         0  printfstubs.o ABSOLUTE
    _printf_llo                              0x00000000   Number         0  printfstubs.o ABSOLUTE
    _printf_llu                              0x00000000   Number         0  printfstubs.o ABSOLUTE
    _printf_llx                              0x00000000   Number         0  printfstubs.o ABSOLUTE
    _printf_longlong_dec                     0x00000000   Number         0  printfstubs.o ABSOLUTE
    _printf_longlong_hex                     0x00000000   Number         0  printfstubs.o ABSOLUTE
    _printf_longlong_oct                     0x00000000   Number         0  printfstubs.o ABSOLUTE
    _printf_ls                               0x00000000   Number         0  printfstubs.o ABSOLUTE
    _printf_mbtowc                           0x00000000   Number         0  printfstubs.o ABSOLUTE
    _printf_n                                0x00000000   Number         0  printfstubs.o ABSOLUTE
    _printf_o                                0x00000000   Number         0  printfstubs.o ABSOLUTE
    _printf_p                                0x00000000   Number         0  printfstubs.o ABSOLUTE
    _printf_percent                          0x00000000   Number         0  printfstubs.o ABSOLUTE
    _printf_pre_padding                      0x00000000   Number         0  printfstubs.o ABSOLUTE
    _printf_return_value                     0x00000000   Number         0  printfstubs.o ABSOLUTE
    _printf_s                                0x00000000   Number         0  printfstubs.o ABSOLUTE
    _printf_sizespec                         0x00000000   Number         0  printfstubs.o ABSOLUTE
    _printf_str                              0x00000000   Number         0  printfstubs.o ABSOLUTE
    _printf_truncate_signed                  0x00000000   Number         0  printfstubs.o ABSOLUTE
    _printf_truncate_unsigned                0x00000000   Number         0  printfstubs.o ABSOLUTE
    _printf_u                                0x00000000   Number         0  printfstubs.o ABSOLUTE
    _printf_wc                               0x00000000   Number         0  printfstubs.o ABSOLUTE
    _printf_wctomb                           0x00000000   Number         0  printfstubs.o ABSOLUTE
    _printf_widthprec                        0x00000000   Number         0  printfstubs.o ABSOLUTE
    _printf_x                                0x00000000   Number         0  printfstubs.o ABSOLUTE
    g_vector_table                           0x00000040   Data          88  vector_data.o(.application_vectors)
    Load$$__ospi0_cs0_from_flash$$Base       0x00000098   Number         0  anon$$obj.o ABSOLUTE
    Load$$__ram_from_flash$$Base             0x00000098   Number         0  anon$$obj.o ABSOLUTE
    __aeabi_memcpy                           0x000000ed   Thumb Code    36  memcpya.o(.text)
    __aeabi_memcpy4                          0x000000ed   Thumb Code     0  memcpya.o(.text)
    __aeabi_memcpy8                          0x000000ed   Thumb Code     0  memcpya.o(.text)
    __aeabi_memset                           0x00000111   Thumb Code    14  memseta.o(.text)
    __aeabi_memset4                          0x00000111   Thumb Code     0  memseta.o(.text)
    __aeabi_memset8                          0x00000111   Thumb Code     0  memseta.o(.text)
    __aeabi_memclr                           0x0000011f   Thumb Code     4  memseta.o(.text)
    __aeabi_memclr4                          0x0000011f   Thumb Code     0  memseta.o(.text)
    __aeabi_memclr8                          0x0000011f   Thumb Code     0  memseta.o(.text)
    _memset$wrapper                          0x00000123   Thumb Code    18  memseta.o(.text)
    memcmp                                   0x00000135   Thumb Code    26  memcmp.o(.text)
    __aeabi_f2d                              0x0000014f   Thumb Code    38  f2d.o(.text)
    __aeabi_uidiv                            0x00000175   Thumb Code     0  uidiv.o(.text)
    __aeabi_uidivmod                         0x00000175   Thumb Code    44  uidiv.o(.text)
    __aeabi_uldivmod                         0x000001a1   Thumb Code    98  uldiv.o(.text)
    __I$use$fp                               0x00000203   Thumb Code     0  iusefp.o(.text)
    __aeabi_dadd                             0x00000203   Thumb Code   322  dadd.o(.text)
    __aeabi_dsub                             0x00000345   Thumb Code     6  dadd.o(.text)
    __aeabi_drsub                            0x0000034b   Thumb Code     6  dadd.o(.text)
    __aeabi_dmul                             0x00000351   Thumb Code   228  dmul.o(.text)
    __aeabi_ddiv                             0x00000435   Thumb Code   222  ddiv.o(.text)
    __aeabi_d2ulz                            0x00000513   Thumb Code    48  dfixul.o(.text)
    __aeabi_cdrcmple                         0x00000545   Thumb Code    48  cdrcmple.o(.text)
    __aeabi_llsl                             0x00000575   Thumb Code    30  llshl.o(.text)
    _ll_shift_l                              0x00000575   Thumb Code     0  llshl.o(.text)
    __aeabi_llsr                             0x00000593   Thumb Code    32  llushr.o(.text)
    _ll_ushift_r                             0x00000593   Thumb Code     0  llushr.o(.text)
    __aeabi_lasr                             0x000005b3   Thumb Code    36  llsshr.o(.text)
    _ll_sshift_r                             0x000005b3   Thumb Code     0  llsshr.o(.text)
    _double_round                            0x000005d7   Thumb Code    30  depilogue.o(.text)
    _double_epilogue                         0x000005f5   Thumb Code   156  depilogue.o(.text)
    Bh1750_Init                              0x00000691   Thumb Code    70  driver_bh1750_1.o(.text.Bh1750_Init)
    Bh1750_ReadLux                           0x000006d9   Thumb Code   168  driver_bh1750_1.o(.text.Bh1750_ReadLux)
    BusFault_Handler                         0x00000785   Thumb Code     4  startup.o(.text.Default_Handler)
    DebugMon_Handler                         0x00000785   Thumb Code     4  startup.o(.text.Default_Handler)
    Default_Handler                          0x00000785   Thumb Code     4  startup.o(.text.Default_Handler)
    HardFault_Handler                        0x00000785   Thumb Code     4  startup.o(.text.Default_Handler)
    MemManage_Handler                        0x00000785   Thumb Code     4  startup.o(.text.Default_Handler)
    PendSV_Handler                           0x00000785   Thumb Code     4  startup.o(.text.Default_Handler)
    SVC_Handler                              0x00000785   Thumb Code     4  startup.o(.text.Default_Handler)
    SecureFault_Handler                      0x00000785   Thumb Code     4  startup.o(.text.Default_Handler)
    SysTick_Handler                          0x00000785   Thumb Code     4  startup.o(.text.Default_Handler)
    UsageFault_Handler                       0x00000785   Thumb Code     4  startup.o(.text.Default_Handler)
    Dht22_Read                               0x00000789   Thumb Code   428  driver_dht22_1.o(.text.Dht22_Read)
    NMI_Handler                              0x0000096d   Thumb Code    68  bsp_group_irq.o(.text.NMI_Handler)
    R_BSP_Init_RTC                           0x000009b1   Thumb Code   122  bsp_clocks.o(.text.R_BSP_Init_RTC)
    R_BSP_RegisterProtectDisable             0x00000a2b   Thumb Code    78  bsp_register_protection.o(.text.R_BSP_RegisterProtectDisable)
    R_BSP_RegisterProtectEnable              0x00000a79   Thumb Code    82  bsp_register_protection.o(.text.R_BSP_RegisterProtectEnable)
    R_BSP_SoftwareDelay                      0x00000acb   Thumb Code   132  bsp_delay.o(.text.R_BSP_SoftwareDelay)
    R_BSP_SubClockStabilizeWaitAfterReset    0x00000b4f   Thumb Code     2  bsp_clocks.o(.text.R_BSP_SubClockStabilizeWaitAfterReset)
    R_BSP_WarmStart                          0x00000b51   Thumb Code    26  hal_warmstart_1.o(.text.R_BSP_WarmStart)
    R_IOPORT_Open                            0x00000b6b   Thumb Code    22  r_ioport.o(.text.R_IOPORT_Open)
    R_IOPORT_PinCfg                          0x00000b81   Thumb Code   178  r_ioport.o(.text.R_IOPORT_PinCfg)
    R_IOPORT_PinRead                         0x00000c33   Thumb Code    34  r_ioport.o(.text.R_IOPORT_PinRead)
    R_IOPORT_PinWrite                        0x00000c55   Thumb Code    40  r_ioport.o(.text.R_IOPORT_PinWrite)
    R_SCI_I2C_Abort                          0x00000c7d   Thumb Code    40  r_sci_i2c.o(.text.R_SCI_I2C_Abort)
    R_SCI_I2C_CallbackSet                    0x00000ca5   Thumb Code    14  r_sci_i2c.o(.text.R_SCI_I2C_CallbackSet)
    R_SCI_I2C_Close                          0x00000cb3   Thumb Code    86  r_sci_i2c.o(.text.R_SCI_I2C_Close)
    R_SCI_I2C_Open                           0x00000d09   Thumb Code   346  r_sci_i2c.o(.text.R_SCI_I2C_Open)
    R_SCI_I2C_Read                           0x00000e63   Thumb Code    16  r_sci_i2c.o(.text.R_SCI_I2C_Read)
    R_SCI_I2C_SlaveAddressSet                0x00000e73   Thumb Code    10  r_sci_i2c.o(.text.R_SCI_I2C_SlaveAddressSet)
    R_SCI_I2C_StatusGet                      0x00000e7d   Thumb Code    24  r_sci_i2c.o(.text.R_SCI_I2C_StatusGet)
    R_SCI_I2C_Write                          0x00000e95   Thumb Code    16  r_sci_i2c.o(.text.R_SCI_I2C_Write)
    R_SCI_UART_Open                          0x00000ea5   Thumb Code   828  r_sci_uart.o(.text.R_SCI_UART_Open)
    R_SCI_UART_Read                          0x000011e1   Thumb Code    10  r_sci_uart.o(.text.R_SCI_UART_Read)
    R_SCI_UART_Write                         0x000011eb   Thumb Code    76  r_sci_uart.o(.text.R_SCI_UART_Write)
    Reset_Handler                            0x00001239   Thumb Code    10  startup.o(.text.Reset_Handler)
    SystemCoreClockUpdate                    0x00001243   Thumb Code    44  bsp_clocks.o(.text.SystemCoreClockUpdate)
    SystemInit                               0x00001271   Thumb Code   162  system.o(.text.SystemInit)
    Uart_Init                                0x0000136f   Thumb Code     8  driver_uart_1.o(.text.Uart_Init)
    Uart_Printf                              0x00001379   Thumb Code    80  driver_uart_1.o(.text.Uart_Printf)
    Uart_Send                                0x000013c9   Thumb Code    32  driver_uart_1.o(.text.Uart_Send)
    Uart_StartRx                             0x000013e9   Thumb Code    12  driver_uart_1.o(.text.Uart_StartRx)
    bsp_clock_init                           0x0000145d   Thumb Code   316  bsp_clocks.o(.text.bsp_clock_init)
    bsp_init                                 0x00001599   Thumb Code     2  bsp_common.o(.text.bsp_init_internal)
    bsp_init_internal                        0x00001599   Thumb Code     2  bsp_common.o(.text.bsp_init_internal)
    bsp_irq_cfg                              0x0000159d   Thumb Code   138  bsp_irq.o(.text.bsp_irq_cfg)
    bsp_prv_software_delay_loop              0x00001627   Thumb Code     8  bsp_delay.o(.text.bsp_prv_software_delay_loop)
    hal_entry                                0x00001709   Thumb Code  1892  hal_entry_1.o(.text.hal_entry)
    main                                     0x00001efd   Thumb Code    10  main.o(.text.main)
    sci_i2c_master_callback                  0x00002009   Thumb Code    50  hal_entry_1.o(.text.sci_i2c_master_callback)
    sci_i2c_tei_isr                          0x000020d3   Thumb Code   284  r_sci_i2c.o(.text.sci_i2c_tei_isr)
    sci_i2c_txi_isr                          0x000021ef   Thumb Code   296  r_sci_i2c.o(.text.sci_i2c_txi_isr)
    sci_uart_eri_isr                         0x00002317   Thumb Code   106  r_sci_uart.o(.text.sci_uart_eri_isr)
    sci_uart_rxi_isr                         0x00002381   Thumb Code   136  r_sci_uart.o(.text.sci_uart_rxi_isr)
    sci_uart_tei_isr                         0x00002409   Thumb Code    74  r_sci_uart.o(.text.sci_uart_tei_isr)
    sci_uart_txi_isr                         0x00002453   Thumb Code   136  r_sci_uart.o(.text.sci_uart_txi_isr)
    uart2_callback                           0x000024db   Thumb Code    22  hal_entry_1.o(.text.uart2_callback)
    uart4_callback                           0x000024f1   Thumb Code    40  hal_entry_1.o(.text.uart4_callback)
    uart7_callback                           0x00002519   Thumb Code    22  hal_entry_1.o(.text.uart7_callback)
    uart8_callback                           0x0000252f   Thumb Code    40  hal_entry_1.o(.text.uart8_callback)
    uart9_callback                           0x00002557   Thumb Code    40  hal_entry_1.o(.text.uart9_callback)
    __0snprintf                              0x00002581   Thumb Code    48  printfa.o(i.__0snprintf)
    __1snprintf                              0x00002581   Thumb Code     0  printfa.o(i.__0snprintf)
    __2snprintf                              0x00002581   Thumb Code     0  printfa.o(i.__0snprintf)
    __c89snprintf                            0x00002581   Thumb Code     0  printfa.o(i.__0snprintf)
    snprintf                                 0x00002581   Thumb Code     0  printfa.o(i.__0snprintf)
    __0vsnprintf                             0x000025b5   Thumb Code    46  printfa.o(i.__0vsnprintf)
    __1vsnprintf                             0x000025b5   Thumb Code     0  printfa.o(i.__0vsnprintf)
    __2vsnprintf                             0x000025b5   Thumb Code     0  printfa.o(i.__0vsnprintf)
    __c89vsnprintf                           0x000025b5   Thumb Code     0  printfa.o(i.__0vsnprintf)
    vsnprintf                                0x000025b5   Thumb Code     0  printfa.o(i.__0vsnprintf)
    g_bsp_pin_cfg                            0x00002f44   Data          12  pin_data.o(.rodata.g_bsp_pin_cfg)
    g_bsp_pin_cfg_data                       0x00002f50   Data         120  pin_data.o(.rodata.g_bsp_pin_cfg_data)
    g_i2c5                                   0x00002fc8   Data          12  hal_data.o(.rodata.g_i2c5)
    g_i2c5_cfg                               0x00002fd4   Data          56  hal_data.o(.rodata.g_i2c5_cfg)
    g_i2c5_cfg_extend                        0x0000300c   Data           6  hal_data.o(.rodata.g_i2c5_cfg_extend)
    g_i2c_master_on_sci                      0x00003014   Data          32  r_sci_i2c.o(.rodata.g_i2c_master_on_sci)
    g_init_info                              0x00003034   Data          24  bsp_linker.o(.rodata.g_init_info)
    g_interrupt_event_link_select            0x0000304c   Data          88  vector_data.o(.rodata.g_interrupt_event_link_select)
    g_uart2_cfg                              0x000030b0   Data          68  hal_data.o(.rodata.g_uart2_cfg)
    g_uart2_cfg_extend                       0x000030f4   Data          44  hal_data.o(.rodata.g_uart2_cfg_extend)
    g_uart4_cfg                              0x00003120   Data          68  hal_data.o(.rodata.g_uart4_cfg)
    g_uart4_cfg_extend                       0x00003164   Data          44  hal_data.o(.rodata.g_uart4_cfg_extend)
    g_uart7_cfg                              0x00003190   Data          68  hal_data.o(.rodata.g_uart7_cfg)
    g_uart7_cfg_extend                       0x000031d4   Data          44  hal_data.o(.rodata.g_uart7_cfg_extend)
    g_uart8_cfg                              0x00003200   Data          68  hal_data.o(.rodata.g_uart8_cfg)
    g_uart8_cfg_extend                       0x00003244   Data          44  hal_data.o(.rodata.g_uart8_cfg_extend)
    g_uart9_cfg                              0x00003270   Data          68  hal_data.o(.rodata.g_uart9_cfg)
    g_uart9_cfg_extend                       0x000032b4   Data          44  hal_data.o(.rodata.g_uart9_cfg_extend)
    gp_ddsc_DATA_FLASH_END                   0x000032e0   Data           4  bsp_linker.o(.rodata.gp_ddsc_DATA_FLASH_END)
    gp_ddsc_DATA_FLASH_START                 0x000032e4   Data           4  bsp_linker.o(.rodata.gp_ddsc_DATA_FLASH_START)
    gp_ddsc_FLASH_END                        0x000032e8   Data           4  bsp_linker.o(.rodata.gp_ddsc_FLASH_END)
    gp_ddsc_FLASH_NSC                        0x000032ec   Data           4  bsp_linker.o(.rodata.gp_ddsc_FLASH_NSC)
    gp_ddsc_FLASH_START                      0x000032f0   Data           4  bsp_linker.o(.rodata.gp_ddsc_FLASH_START)
    gp_ddsc_OPTION_SETTING_BANKSEL_END       0x000032f4   Data           4  bsp_linker.o(.rodata.gp_ddsc_OPTION_SETTING_BANKSEL_END)
    gp_ddsc_OPTION_SETTING_BANKSEL_SEC_END   0x000032f8   Data           4  bsp_linker.o(.rodata.gp_ddsc_OPTION_SETTING_BANKSEL_SEC_END)
    gp_ddsc_OPTION_SETTING_BANKSEL_SEC_START 0x000032fc   Data           4  bsp_linker.o(.rodata.gp_ddsc_OPTION_SETTING_BANKSEL_SEC_START)
    gp_ddsc_OPTION_SETTING_BANKSEL_SEL_END   0x00003300   Data           4  bsp_linker.o(.rodata.gp_ddsc_OPTION_SETTING_BANKSEL_SEL_END)
    gp_ddsc_OPTION_SETTING_BANKSEL_SEL_START 0x00003304   Data           4  bsp_linker.o(.rodata.gp_ddsc_OPTION_SETTING_BANKSEL_SEL_START)
    gp_ddsc_OPTION_SETTING_BANKSEL_START     0x00003308   Data           4  bsp_linker.o(.rodata.gp_ddsc_OPTION_SETTING_BANKSEL_START)
    gp_ddsc_OPTION_SETTING_BPS_END           0x0000330c   Data           4  bsp_linker.o(.rodata.gp_ddsc_OPTION_SETTING_BPS_END)
    gp_ddsc_OPTION_SETTING_BPS_SEC_END       0x00003310   Data           4  bsp_linker.o(.rodata.gp_ddsc_OPTION_SETTING_BPS_SEC_END)
    gp_ddsc_OPTION_SETTING_BPS_SEC_START     0x00003314   Data           4  bsp_linker.o(.rodata.gp_ddsc_OPTION_SETTING_BPS_SEC_START)
    gp_ddsc_OPTION_SETTING_BPS_SEL_END       0x00003318   Data           4  bsp_linker.o(.rodata.gp_ddsc_OPTION_SETTING_BPS_SEL_END)
    gp_ddsc_OPTION_SETTING_BPS_SEL_START     0x0000331c   Data           4  bsp_linker.o(.rodata.gp_ddsc_OPTION_SETTING_BPS_SEL_START)
    gp_ddsc_OPTION_SETTING_BPS_START         0x00003320   Data           4  bsp_linker.o(.rodata.gp_ddsc_OPTION_SETTING_BPS_START)
    gp_ddsc_OPTION_SETTING_DUALSEL_END       0x00003324   Data           4  bsp_linker.o(.rodata.gp_ddsc_OPTION_SETTING_DUALSEL_END)
    gp_ddsc_OPTION_SETTING_DUALSEL_START     0x00003328   Data           4  bsp_linker.o(.rodata.gp_ddsc_OPTION_SETTING_DUALSEL_START)
    gp_ddsc_OPTION_SETTING_OFS0_END          0x0000332c   Data           4  bsp_linker.o(.rodata.gp_ddsc_OPTION_SETTING_OFS0_END)
    gp_ddsc_OPTION_SETTING_OFS0_START        0x00003330   Data           4  bsp_linker.o(.rodata.gp_ddsc_OPTION_SETTING_OFS0_START)
    gp_ddsc_OPTION_SETTING_OFS1_END          0x00003334   Data           4  bsp_linker.o(.rodata.gp_ddsc_OPTION_SETTING_OFS1_END)
    gp_ddsc_OPTION_SETTING_OFS1_SEC_END      0x00003338   Data           4  bsp_linker.o(.rodata.gp_ddsc_OPTION_SETTING_OFS1_SEC_END)
    gp_ddsc_OPTION_SETTING_OFS1_SEC_START    0x0000333c   Data           4  bsp_linker.o(.rodata.gp_ddsc_OPTION_SETTING_OFS1_SEC_START)
    gp_ddsc_OPTION_SETTING_OFS1_SEL_END      0x00003340   Data           4  bsp_linker.o(.rodata.gp_ddsc_OPTION_SETTING_OFS1_SEL_END)
    gp_ddsc_OPTION_SETTING_OFS1_SEL_START    0x00003344   Data           4  bsp_linker.o(.rodata.gp_ddsc_OPTION_SETTING_OFS1_SEL_START)
    gp_ddsc_OPTION_SETTING_OFS1_START        0x00003348   Data           4  bsp_linker.o(.rodata.gp_ddsc_OPTION_SETTING_OFS1_START)
    gp_ddsc_OPTION_SETTING_PBPS_END          0x0000334c   Data           4  bsp_linker.o(.rodata.gp_ddsc_OPTION_SETTING_PBPS_END)
    gp_ddsc_OPTION_SETTING_PBPS_SEC_END      0x00003350   Data           4  bsp_linker.o(.rodata.gp_ddsc_OPTION_SETTING_PBPS_SEC_END)
    gp_ddsc_OPTION_SETTING_PBPS_SEC_START    0x00003354   Data           4  bsp_linker.o(.rodata.gp_ddsc_OPTION_SETTING_PBPS_SEC_START)
    gp_ddsc_OPTION_SETTING_PBPS_START        0x00003358   Data           4  bsp_linker.o(.rodata.gp_ddsc_OPTION_SETTING_PBPS_START)
    gp_ddsc_OSPI0_CS0_END                    0x0000335c   Data           4  bsp_linker.o(.rodata.gp_ddsc_OSPI0_CS0_END)
    gp_ddsc_OSPI0_CS0_START                  0x00003360   Data           4  bsp_linker.o(.rodata.gp_ddsc_OSPI0_CS0_START)
    gp_ddsc_OSPI0_CS1_END                    0x00003364   Data           4  bsp_linker.o(.rodata.gp_ddsc_OSPI0_CS1_END)
    gp_ddsc_OSPI0_CS1_START                  0x00003368   Data           4  bsp_linker.o(.rodata.gp_ddsc_OSPI0_CS1_START)
    gp_ddsc_QSPI_FLASH_END                   0x0000336c   Data           4  bsp_linker.o(.rodata.gp_ddsc_QSPI_FLASH_END)
    gp_ddsc_QSPI_FLASH_START                 0x00003370   Data           4  bsp_linker.o(.rodata.gp_ddsc_QSPI_FLASH_START)
    gp_ddsc_RAM_END                          0x00003374   Data           4  bsp_linker.o(.rodata.gp_ddsc_RAM_END)
    gp_ddsc_RAM_NSC                          0x00003378   Data           4  bsp_linker.o(.rodata.gp_ddsc_RAM_NSC)
    gp_ddsc_RAM_START                        0x0000337c   Data           4  bsp_linker.o(.rodata.gp_ddsc_RAM_START)
    Image$$__ddsc_FLASH_END$$Base            0x00003800   Number         0  anon$$obj.o ABSOLUTE
    Image$$__ddsc_FLASH_NSC$$Base            0x00003800   Number         0  anon$$obj.o ABSOLUTE
    Image$$__ddsc_OPTION_SETTING_OFS0_START$$Base 0x0100a100   Number         0  anon$$obj.o ABSOLUTE
    Image$$__ddsc_OPTION_SETTING_OFS0_END$$Base 0x0100a104   Number         0  anon$$obj.o ABSOLUTE
    Image$$__ddsc_OPTION_SETTING_DUALSEL_END$$Base 0x0100a110   Number         0  anon$$obj.o ABSOLUTE
    Image$$__ddsc_OPTION_SETTING_DUALSEL_START$$Base 0x0100a110   Number         0  anon$$obj.o ABSOLUTE
    Image$$__ddsc_OPTION_SETTING_OFS1_END$$Base 0x0100a180   Number         0  anon$$obj.o ABSOLUTE
    Image$$__ddsc_OPTION_SETTING_OFS1_START$$Base 0x0100a180   Number         0  anon$$obj.o ABSOLUTE
    Image$$__ddsc_OPTION_SETTING_BANKSEL_END$$Base 0x0100a190   Number         0  anon$$obj.o ABSOLUTE
    Image$$__ddsc_OPTION_SETTING_BANKSEL_START$$Base 0x0100a190   Number         0  anon$$obj.o ABSOLUTE
    Image$$__ddsc_OPTION_SETTING_BPS_END$$Base 0x0100a1c0   Number         0  anon$$obj.o ABSOLUTE
    Image$$__ddsc_OPTION_SETTING_BPS_START$$Base 0x0100a1c0   Number         0  anon$$obj.o ABSOLUTE
    Image$$__ddsc_OPTION_SETTING_PBPS_END$$Base 0x0100a1e0   Number         0  anon$$obj.o ABSOLUTE
    Image$$__ddsc_OPTION_SETTING_PBPS_START$$Base 0x0100a1e0   Number         0  anon$$obj.o ABSOLUTE
    Image$$__ddsc_OPTION_SETTING_OFS1_SEC_START$$Base 0x0100a200   Number         0  anon$$obj.o ABSOLUTE
    Image$$__ddsc_OPTION_SETTING_OFS1_SEC_END$$Base 0x0100a204   Number         0  anon$$obj.o ABSOLUTE
    Image$$__ddsc_OPTION_SETTING_BANKSEL_SEC_END$$Base 0x0100a210   Number         0  anon$$obj.o ABSOLUTE
    Image$$__ddsc_OPTION_SETTING_BANKSEL_SEC_START$$Base 0x0100a210   Number         0  anon$$obj.o ABSOLUTE
    Image$$__ddsc_OPTION_SETTING_BPS_SEC_END$$Base 0x0100a240   Number         0  anon$$obj.o ABSOLUTE
    Image$$__ddsc_OPTION_SETTING_BPS_SEC_START$$Base 0x0100a240   Number         0  anon$$obj.o ABSOLUTE
    Image$$__ddsc_OPTION_SETTING_PBPS_SEC_END$$Base 0x0100a260   Number         0  anon$$obj.o ABSOLUTE
    Image$$__ddsc_OPTION_SETTING_PBPS_SEC_START$$Base 0x0100a260   Number         0  anon$$obj.o ABSOLUTE
    Image$$__ddsc_OPTION_SETTING_OFS1_SEL_START$$Base 0x0100a280   Number         0  anon$$obj.o ABSOLUTE
    Image$$__ddsc_OPTION_SETTING_OFS1_SEL_END$$Base 0x0100a284   Number         0  anon$$obj.o ABSOLUTE
    Image$$__ddsc_OPTION_SETTING_BANKSEL_SEL_END$$Base 0x0100a290   Number         0  anon$$obj.o ABSOLUTE
    Image$$__ddsc_OPTION_SETTING_BANKSEL_SEL_START$$Base 0x0100a290   Number         0  anon$$obj.o ABSOLUTE
    Image$$__ddsc_OPTION_SETTING_BPS_SEL_END$$Base 0x0100a2c0   Number         0  anon$$obj.o ABSOLUTE
    Image$$__ddsc_OPTION_SETTING_BPS_SEL_START$$Base 0x0100a2c0   Number         0  anon$$obj.o ABSOLUTE
    Image$$__ddsc_DATA_FLASH_END$$Base       0x08000000   Number         0  anon$$obj.o ABSOLUTE
    Image$$__ddsc_DATA_FLASH_START$$Base     0x08000000   Number         0  anon$$obj.o ABSOLUTE
    Load$$__ospi0_cs0_from_data_flash$$Base  0x08000000   Number         0  anon$$obj.o ABSOLUTE
    Load$$__ram_from_data_flash$$Base        0x08000000   Number         0  anon$$obj.o ABSOLUTE
    Dht22                                    0x20000000   Data           4  driver_dht22_1.o(.data.Dht22)
    Image$$__ddsc_RAM_START$$Base            0x20000000   Number         0  anon$$obj.o ABSOLUTE
    Image$$__ram_from_data_flash$$Base       0x20000000   Number         0  anon$$obj.o ABSOLUTE
    Image$$__ram_from_data_flash$$Limit      0x20000000   Number         0  anon$$obj.o ABSOLUTE
    Image$$__ram_from_flash$$Base            0x20000000   Number         0  anon$$obj.o ABSOLUTE
    Image$$__ram_from_ospi0_cs1$$Base        0x20000000   Number         0  anon$$obj.o ABSOLUTE
    Image$$__ram_from_ospi0_cs1$$Limit       0x20000000   Number         0  anon$$obj.o ABSOLUTE
    Image$$__ram_from_qspi_flash$$Base       0x20000000   Number         0  anon$$obj.o ABSOLUTE
    Image$$__ram_from_qspi_flash$$Limit      0x20000000   Number         0  anon$$obj.o ABSOLUTE
    Uart8                                    0x20000004   Data          12  driver_uart_1.o(.data.Uart8)
    UartFace                                 0x20000010   Data          12  driver_uart_1.o(.data.UartFace)
    UartHmi                                  0x2000001c   Data          12  driver_uart_1.o(.data.UartHmi)
    UartPc                                   0x20000028   Data          12  driver_uart_1.o(.data.UartPc)
    UartSensor                               0x20000034   Data          12  driver_uart_1.o(.data.UartSensor)
    g_uart2_baud_setting                     0x20000040   Data           4  hal_data.o(.data.g_uart2_baud_setting)
    g_uart4_baud_setting                     0x20000044   Data           4  hal_data.o(.data.g_uart4_baud_setting)
    g_uart7_baud_setting                     0x20000048   Data           4  hal_data.o(.data.g_uart7_baud_setting)
    g_uart8_baud_setting                     0x2000004c   Data           4  hal_data.o(.data.g_uart8_baud_setting)
    g_uart9_baud_setting                     0x20000050   Data           4  hal_data.o(.data.g_uart9_baud_setting)
    Image$$__ram_from_flash$$Limit           0x20000054   Number         0  anon$$obj.o ABSOLUTE
    Image$$__ram_noinit_nocache$$ZI$$Base    0x20000060   Number         0  anon$$obj.o ABSOLUTE
    Image$$__ram_zero_nocache$$ZI$$Base      0x20000060   Number         0  anon$$obj.o ABSOLUTE
    Image$$__ram_zero_nocache_pad$$ZI$$Limit 0x20000060   Number         0  anon$$obj.o ABSOLUTE
    g_heap                                   0x20000060   Data           0  startup.o(.bss.g_heap)
    g_main_stack                             0x20000060   Data        1024  startup.o(.bss.g_main_stack)
    Image$$__ram_zero$$ZI$$Base              0x2000047c   Number         0  anon$$obj.o ABSOLUTE
    SystemCoreClock                          0x2000047c   Data           4  system.o(.bss.SystemCoreClock)
    g_bsp_group_irq_sources                  0x20000900   Data          64  bsp_group_irq.o(.bss.g_bsp_group_irq_sources)
    g_i2c5_ctrl                              0x20000948   Data          72  hal_data.o(.bss.g_i2c5_ctrl)
    g_i2c_aborted                            0x20000990   Data           1  hal_entry_1.o(.bss.g_i2c_aborted)
    g_i2c_completed                          0x20000991   Data           1  hal_entry_1.o(.bss.g_i2c_completed)
    g_ioport_ctrl                            0x20000994   Data           8  common_data.o(.bss.g_ioport_ctrl)
    g_protect_counters                       0x2000099c   Data          10  bsp_register_protection.o(.bss.g_protect_counters)
    g_protect_pfswe_counter                  0x200009a8   Data           4  bsp_io.o(.bss.g_protect_pfswe_counter)
    g_uart2_ctrl                             0x200009ac   Data          48  hal_data.o(.bss.g_uart2_ctrl)
    g_uart4_ctrl                             0x200009dc   Data          48  hal_data.o(.bss.g_uart4_ctrl)
    g_uart7_ctrl                             0x20000a0c   Data          48  hal_data.o(.bss.g_uart7_ctrl)
    g_uart8_ctrl                             0x20000a3c   Data          48  hal_data.o(.bss.g_uart8_ctrl)
    g_uart9_ctrl                             0x20000a6c   Data          48  hal_data.o(.bss.g_uart9_ctrl)
    gp_renesas_isr_context                   0x20000a9c   Data          88  bsp_irq.o(.bss.gp_renesas_isr_context)
    Image$$__ram_zero$$ZI$$Limit             0x20000af4   Number         0  anon$$obj.o ABSOLUTE
    Image$$__ddsc_RAM_END$$Base              0x20000c00   Number         0  anon$$obj.o ABSOLUTE
    Image$$__ddsc_RAM_NSC$$Base              0x20000c00   Number         0  anon$$obj.o ABSOLUTE
    Image$$__ddsc_QSPI_FLASH_END$$Base       0x60000000   Number         0  anon$$obj.o ABSOLUTE
    Image$$__ddsc_QSPI_FLASH_START$$Base     0x60000000   Number         0  anon$$obj.o ABSOLUTE
    Load$$__ospi0_cs0_from_qspi_flash$$Base  0x60000000   Number         0  anon$$obj.o ABSOLUTE
    Load$$__ram_from_qspi_flash$$Base        0x60000000   Number         0  anon$$obj.o ABSOLUTE
    Image$$__ddsc_OSPI0_CS0_END$$Base        0x68000000   Number         0  anon$$obj.o ABSOLUTE
    Image$$__ddsc_OSPI0_CS0_START$$Base      0x68000000   Number         0  anon$$obj.o ABSOLUTE
    Image$$__ospi0_cs0_from_data_flash$$Base 0x68000000   Number         0  anon$$obj.o ABSOLUTE
    Image$$__ospi0_cs0_from_data_flash$$Limit 0x68000000   Number         0  anon$$obj.o ABSOLUTE
    Image$$__ospi0_cs0_from_flash$$Base      0x68000000   Number         0  anon$$obj.o ABSOLUTE
    Image$$__ospi0_cs0_from_flash$$Limit     0x68000000   Number         0  anon$$obj.o ABSOLUTE
    Image$$__ospi0_cs0_from_ospi0_cs1$$Base  0x68000000   Number         0  anon$$obj.o ABSOLUTE
    Image$$__ospi0_cs0_from_ospi0_cs1$$Limit 0x68000000   Number         0  anon$$obj.o ABSOLUTE
    Image$$__ospi0_cs0_from_qspi_flash$$Base 0x68000000   Number         0  anon$$obj.o ABSOLUTE
    Image$$__ospi0_cs0_from_qspi_flash$$Limit 0x68000000   Number         0  anon$$obj.o ABSOLUTE
    Image$$__ospi0_cs0_noinit_nocache$$ZI$$Base 0x68000000   Number         0  anon$$obj.o ABSOLUTE
    Image$$__ospi0_cs0_zero$$ZI$$Base        0x68000000   Number         0  anon$$obj.o ABSOLUTE
    Image$$__ospi0_cs0_zero$$ZI$$Limit       0x68000000   Number         0  anon$$obj.o ABSOLUTE
    Image$$__ospi0_cs0_zero_nocache$$ZI$$Base 0x68000000   Number         0  anon$$obj.o ABSOLUTE
    Image$$__ospi0_cs0_zero_nocache_pad$$ZI$$Limit 0x68000000   Number         0  anon$$obj.o ABSOLUTE
    Image$$__ddsc_OSPI0_CS1_END$$Base        0x70000000   Number         0  anon$$obj.o ABSOLUTE
    Image$$__ddsc_OSPI0_CS1_START$$Base      0x70000000   Number         0  anon$$obj.o ABSOLUTE
    Load$$__ospi0_cs0_from_ospi0_cs1$$Base   0x70000000   Number         0  anon$$obj.o ABSOLUTE
    Load$$__ram_from_ospi0_cs1$$Base         0x70000000   Number         0  anon$$obj.o ABSOLUTE



==============================================================================

Memory Map of the image

  Image Entry point : 0x00001239

  Load Region LOAD_REGION_QSPI_FLASH (Base: 0x60000000, Size: 0x00000000, Max: 0x04000000, ABSOLUTE)

    Execution Region __RAM_start (Exec base: 0x20000000, Load base: 0x60000000, Size: 0x00000000, Max: 0x00000000, ABSOLUTE)

    Exec Addr    Load Addr    Size         Type   Attr      Idx    E Section Name        Object

    0x20000000        -       0x00000000   Zero   RW            8    __RAM_start.bss     anon$$obj.o


    Execution Region __ddsc_RAM_START (Exec base: 0x20000000, Load base: 0x60000000, Size: 0x00000000, Max: 0x00000000, ABSOLUTE)

    Exec Addr    Load Addr    Size         Type   Attr      Idx    E Section Name        Object

    0x20000000        -       0x00000000   Zero   RW            9    __ddsc_RAM_START.bss  anon$$obj.o


    Execution Region .ram.startof (Exec base: 0x20000000, Load base: 0x60000000, Size: 0x00000000, Max: 0x00000000, ABSOLUTE)

    Exec Addr    Load Addr    Size         Type   Attr      Idx    E Section Name        Object

    0x20000000        -       0x00000000   Zero   RW           10    .ram.startof.bss    anon$$obj.o


    Execution Region __ram_dtc_vector (Exec base: 0x20000000, Load base: 0x60000000, Size: 0x00000000, Max: 0xffffffff, ABSOLUTE, UNINIT)

    **** No section assigned to this execution region ****


    Execution Region __ram_from_qspi_flash (Exec base: 0x20000000, Load base: 0x60000000, Size: 0x00000000, Max: 0xffffffff, ABSOLUTE)

    **** No section assigned to this execution region ****


    Execution Region __QSPI_FLASH_start (Exec base: 0x60000000, Load base: 0x60000000, Size: 0x00000000, Max: 0x00000000, ABSOLUTE)

    Exec Addr    Load Addr    Size         Type   Attr      Idx    E Section Name        Object

    0x60000000        -       0x00000000   Zero   RW            1    __QSPI_FLASH_start.bss  anon$$obj.o


    Execution Region __QSPI_FLASH_init (Exec base: 0x60000000, Load base: 0x60000000, Size: 0x00000000, Max: 0x00000000, ABSOLUTE)

    Exec Addr    Load Addr    Size         Type   Attr      Idx    E Section Name        Object

    0x60000000        -       0x00000000   Zero   RW            2    __QSPI_FLASH_init.bss  anon$$obj.o


    Execution Region __ddsc_QSPI_FLASH_START (Exec base: 0x60000000, Load base: 0x60000000, Size: 0x00000000, Max: 0x00000000, ABSOLUTE)

    Exec Addr    Load Addr    Size         Type   Attr      Idx    E Section Name        Object

    0x60000000        -       0x00000000   Zero   RW            3    __ddsc_QSPI_FLASH_START.bss  anon$$obj.o


    Execution Region .qspi_flash.startof (Exec base: 0x60000000, Load base: 0x60000000, Size: 0x00000000, Max: 0x00000000, ABSOLUTE)

    Exec Addr    Load Addr    Size         Type   Attr      Idx    E Section Name        Object

    0x60000000        -       0x00000000   Zero   RW            4    .qspi_flash.startof.bss  anon$$obj.o


    Execution Region __OSPI0_CS0_start (Exec base: 0x68000000, Load base: 0x60000000, Size: 0x00000000, Max: 0x00000000, ABSOLUTE)

    Exec Addr    Load Addr    Size         Type   Attr      Idx    E Section Name        Object

    0x68000000        -       0x00000000   Zero   RW            5    __OSPI0_CS0_start.bss  anon$$obj.o


    Execution Region __ddsc_OSPI0_CS0_START (Exec base: 0x68000000, Load base: 0x60000000, Size: 0x00000000, Max: 0x00000000, ABSOLUTE)

    Exec Addr    Load Addr    Size         Type   Attr      Idx    E Section Name        Object

    0x68000000        -       0x00000000   Zero   RW            6    __ddsc_OSPI0_CS0_START.bss  anon$$obj.o


    Execution Region .ospi0_cs0.startof (Exec base: 0x68000000, Load base: 0x60000000, Size: 0x00000000, Max: 0x00000000, ABSOLUTE)

    Exec Addr    Load Addr    Size         Type   Attr      Idx    E Section Name        Object

    0x68000000        -       0x00000000   Zero   RW            7    .ospi0_cs0.startof.bss  anon$$obj.o


    Execution Region __ospi0_cs0_from_qspi_flash (Exec base: 0x68000000, Load base: 0x60000000, Size: 0x00000000, Max: 0xffffffff, ABSOLUTE)

    **** No section assigned to this execution region ****



  Load Region LOAD_REGION_QSPI_FLASH_JUMP (Base: 0x60000000, Size: 0x00000000, Max: 0xffffffff, ABSOLUTE)

    Execution Region __qspi_flash_readonly (Exec base: 0x60000000, Load base: 0x60000000, Size: 0x00000000, Max: 0xffffffff, ABSOLUTE, FIXED)

    **** No section assigned to this execution region ****


    Execution Region __qspi_flash_noinit (Exec base: 0x60000000, Load base: 0x60000000, Size: 0x00000000, Max: 0xffffffff, ABSOLUTE, UNINIT, FIXED)

    **** No section assigned to this execution region ****


    Execution Region __ddsc_QSPI_FLASH_END (Exec base: 0x60000000, Load base: 0x60000000, Size: 0x00000000, Max: 0x00000000, ABSOLUTE)

    Exec Addr    Load Addr    Size         Type   Attr      Idx    E Section Name        Object

    0x60000000        -       0x00000000   Zero   RW           11    __ddsc_QSPI_FLASH_END.bss  anon$$obj.o


    Execution Region .qspi_flash.endof (Exec base: 0x60000000, Load base: 0x60000000, Size: 0x00000000, Max: 0x00000000, ABSOLUTE)

    Exec Addr    Load Addr    Size         Type   Attr      Idx    E Section Name        Object

    0x60000000        -       0x00000000   Zero   RW           12    .qspi_flash.endof.bss  anon$$obj.o


    Execution Region __QSPI_FLASH_end (Exec base: 0x60000000, Load base: 0x60000000, Size: 0x00000000, Max: 0x00000000, ABSOLUTE)

    Exec Addr    Load Addr    Size         Type   Attr      Idx    E Section Name        Object

    0x60000000        -       0x00000000   Zero   RW           13    __QSPI_FLASH_end.bss  anon$$obj.o



  Load Region LOAD_REGION_OSPI0_CS1 (Base: 0x70000000, Size: 0x00000000, Max: 0x10000000, ABSOLUTE)

    Execution Region __ram_from_qspi_flash_jump (Exec base: 0x20000000, Load base: 0x70000000, Size: 0x00000000, Max: 0x00000000, ABSOLUTE)

    Exec Addr    Load Addr    Size         Type   Attr      Idx    E Section Name        Object

    0x20000000        -       0x00000000   Zero   RW           19    __ram_from_qspi_flash_jump.bss  anon$$obj.o


    Execution Region __ram_from_ospi0_cs1 (Exec base: 0x20000000, Load base: 0x70000000, Size: 0x00000000, Max: 0xffffffff, ABSOLUTE)

    **** No section assigned to this execution region ****


    Execution Region __ospi0_cs0_from_qspi_flash_jump (Exec base: 0x68000000, Load base: 0x70000000, Size: 0x00000000, Max: 0x00000000, ABSOLUTE)

    Exec Addr    Load Addr    Size         Type   Attr      Idx    E Section Name        Object

    0x68000000        -       0x00000000   Zero   RW           18    __ospi0_cs0_from_qspi_flash_jump.bss  anon$$obj.o


    Execution Region __ospi0_cs0_from_ospi0_cs1 (Exec base: 0x68000000, Load base: 0x70000000, Size: 0x00000000, Max: 0xffffffff, ABSOLUTE)

    **** No section assigned to this execution region ****


    Execution Region __OSPI0_CS1_start (Exec base: 0x70000000, Load base: 0x70000000, Size: 0x00000000, Max: 0x00000000, ABSOLUTE)

    Exec Addr    Load Addr    Size         Type   Attr      Idx    E Section Name        Object

    0x70000000        -       0x00000000   Zero   RW           14    __OSPI0_CS1_start.bss  anon$$obj.o


    Execution Region __OSPI0_CS1_init (Exec base: 0x70000000, Load base: 0x70000000, Size: 0x00000000, Max: 0x00000000, ABSOLUTE)

    Exec Addr    Load Addr    Size         Type   Attr      Idx    E Section Name        Object

    0x70000000        -       0x00000000   Zero   RW           15    __OSPI0_CS1_init.bss  anon$$obj.o


    Execution Region __ddsc_OSPI0_CS1_START (Exec base: 0x70000000, Load base: 0x70000000, Size: 0x00000000, Max: 0x00000000, ABSOLUTE)

    Exec Addr    Load Addr    Size         Type   Attr      Idx    E Section Name        Object

    0x70000000        -       0x00000000   Zero   RW           16    __ddsc_OSPI0_CS1_START.bss  anon$$obj.o


    Execution Region .ospi0_cs1.startof (Exec base: 0x70000000, Load base: 0x70000000, Size: 0x00000000, Max: 0x00000000, ABSOLUTE)

    Exec Addr    Load Addr    Size         Type   Attr      Idx    E Section Name        Object

    0x70000000        -       0x00000000   Zero   RW           17    .ospi0_cs1.startof.bss  anon$$obj.o



  Load Region LOAD_REGION_OSPI0_CS1_JUMP (Base: 0x70000000, Size: 0x00000000, Max: 0xffffffff, ABSOLUTE)

    Execution Region __ospi0_cs1_readonly (Exec base: 0x70000000, Load base: 0x70000000, Size: 0x00000000, Max: 0xffffffff, ABSOLUTE, FIXED)

    **** No section assigned to this execution region ****


    Execution Region __ospi0_cs1_noinit (Exec base: 0x70000000, Load base: 0x70000000, Size: 0x00000000, Max: 0xffffffff, ABSOLUTE, UNINIT, FIXED)

    **** No section assigned to this execution region ****


    Execution Region __ddsc_OSPI0_CS1_END (Exec base: 0x70000000, Load base: 0x70000000, Size: 0x00000000, Max: 0x00000000, ABSOLUTE)

    Exec Addr    Load Addr    Size         Type   Attr      Idx    E Section Name        Object

    0x70000000        -       0x00000000   Zero   RW           20    __ddsc_OSPI0_CS1_END.bss  anon$$obj.o


    Execution Region .ospi0_cs1.endof (Exec base: 0x70000000, Load base: 0x70000000, Size: 0x00000000, Max: 0x00000000, ABSOLUTE)

    Exec Addr    Load Addr    Size         Type   Attr      Idx    E Section Name        Object

    0x70000000        -       0x00000000   Zero   RW           21    .ospi0_cs1.endof.bss  anon$$obj.o


    Execution Region __OSPI0_CS1_end (Exec base: 0x70000000, Load base: 0x70000000, Size: 0x00000000, Max: 0x00000000, ABSOLUTE)

    Exec Addr    Load Addr    Size         Type   Attr      Idx    E Section Name        Object

    0x70000000        -       0x00000000   Zero   RW           22    __OSPI0_CS1_end.bss  anon$$obj.o



  Load Region LOAD_REGION_DATA_FLASH (Base: 0x08000000, Size: 0x00000000, Max: 0x00002000, ABSOLUTE)

    Execution Region __DATA_FLASH_start (Exec base: 0x08000000, Load base: 0x08000000, Size: 0x00000000, Max: 0x00000000, ABSOLUTE)

    Exec Addr    Load Addr    Size         Type   Attr      Idx    E Section Name        Object

    0x08000000        -       0x00000000   Zero   RW           23    __DATA_FLASH_start.bss  anon$$obj.o


    Execution Region __DATA_FLASH_init (Exec base: 0x08000000, Load base: 0x08000000, Size: 0x00000000, Max: 0x00000000, ABSOLUTE)

    Exec Addr    Load Addr    Size         Type   Attr      Idx    E Section Name        Object

    0x08000000        -       0x00000000   Zero   RW           24    __DATA_FLASH_init.bss  anon$$obj.o


    Execution Region __ddsc_DATA_FLASH_START (Exec base: 0x08000000, Load base: 0x08000000, Size: 0x00000000, Max: 0x00000000, ABSOLUTE)

    Exec Addr    Load Addr    Size         Type   Attr      Idx    E Section Name        Object

    0x08000000        -       0x00000000   Zero   RW           25    __ddsc_DATA_FLASH_START.bss  anon$$obj.o


    Execution Region .data_flash.startof (Exec base: 0x08000000, Load base: 0x08000000, Size: 0x00000000, Max: 0x00000000, ABSOLUTE)

    Exec Addr    Load Addr    Size         Type   Attr      Idx    E Section Name        Object

    0x08000000        -       0x00000000   Zero   RW           26    .data_flash.startof.bss  anon$$obj.o


    Execution Region __ram_from_ospi0_cs1_jump (Exec base: 0x20000000, Load base: 0x08000000, Size: 0x00000000, Max: 0x00000000, ABSOLUTE)

    Exec Addr    Load Addr    Size         Type   Attr      Idx    E Section Name        Object

    0x20000000        -       0x00000000   Zero   RW           28    __ram_from_ospi0_cs1_jump.bss  anon$$obj.o


    Execution Region __ram_from_data_flash (Exec base: 0x20000000, Load base: 0x08000000, Size: 0x00000000, Max: 0xffffffff, ABSOLUTE)

    **** No section assigned to this execution region ****


    Execution Region __ospi0_cs0_from_ospi0_cs1_jump (Exec base: 0x68000000, Load base: 0x08000000, Size: 0x00000000, Max: 0x00000000, ABSOLUTE)

    Exec Addr    Load Addr    Size         Type   Attr      Idx    E Section Name        Object

    0x68000000        -       0x00000000   Zero   RW           27    __ospi0_cs0_from_ospi0_cs1_jump.bss  anon$$obj.o


    Execution Region __ospi0_cs0_from_data_flash (Exec base: 0x68000000, Load base: 0x08000000, Size: 0x00000000, Max: 0xffffffff, ABSOLUTE)

    **** No section assigned to this execution region ****



  Load Region LOAD_REGION_DATA_FLASH_JUMP (Base: 0x08000000, Size: 0x00000000, Max: 0xffffffff, ABSOLUTE)

    Execution Region __data_flash_readonly (Exec base: 0x08000000, Load base: 0x08000000, Size: 0x00000000, Max: 0xffffffff, ABSOLUTE, FIXED)

    **** No section assigned to this execution region ****


    Execution Region __data_flash_noinit (Exec base: 0x08000000, Load base: 0x08000000, Size: 0x00000000, Max: 0xffffffff, ABSOLUTE, UNINIT, FIXED)

    **** No section assigned to this execution region ****


    Execution Region __ddsc_DATA_FLASH_END (Exec base: 0x08000000, Load base: 0x08000000, Size: 0x00000000, Max: 0x00000000, ABSOLUTE)

    Exec Addr    Load Addr    Size         Type   Attr      Idx    E Section Name        Object

    0x08000000        -       0x00000000   Zero   RW           29    __ddsc_DATA_FLASH_END.bss  anon$$obj.o


    Execution Region .data_flash.endof (Exec base: 0x08000000, Load base: 0x08000000, Size: 0x00000000, Max: 0x00000000, ABSOLUTE)

    Exec Addr    Load Addr    Size         Type   Attr      Idx    E Section Name        Object

    0x08000000        -       0x00000000   Zero   RW           30    .data_flash.endof.bss  anon$$obj.o


    Execution Region __DATA_FLASH_end (Exec base: 0x08000000, Load base: 0x08000000, Size: 0x00000000, Max: 0x00000000, ABSOLUTE)

    Exec Addr    Load Addr    Size         Type   Attr      Idx    E Section Name        Object

    0x08000000        -       0x00000000   Zero   RW           31    __DATA_FLASH_end.bss  anon$$obj.o



  Load Region LOAD_REGION_FLASH (Base: 0x00000000, Size: 0x000000ec, Max: 0x00100000, ABSOLUTE)

    Execution Region __FLASH_start (Exec base: 0x00000000, Load base: 0x00000000, Size: 0x00000000, Max: 0x00000000, ABSOLUTE)

    Exec Addr    Load Addr    Size         Type   Attr      Idx    E Section Name        Object

    0x00000000        -       0x00000000   Zero   RW           32    __FLASH_start.bss   anon$$obj.o


    Execution Region __FLASH_init (Exec base: 0x00000000, Load base: 0x00000000, Size: 0x00000000, Max: 0x00000000, ABSOLUTE)

    Exec Addr    Load Addr    Size         Type   Attr      Idx    E Section Name        Object

    0x00000000        -       0x00000000   Zero   RW           33    __FLASH_init.bss    anon$$obj.o


    Execution Region __ddsc_FLASH_START (Exec base: 0x00000000, Load base: 0x00000000, Size: 0x00000000, Max: 0x00000000, ABSOLUTE)

    Exec Addr    Load Addr    Size         Type   Attr      Idx    E Section Name        Object

    0x00000000        -       0x00000000   Zero   RW           34    __ddsc_FLASH_START.bss  anon$$obj.o


    Execution Region .flash.startof (Exec base: 0x00000000, Load base: 0x00000000, Size: 0x00000000, Max: 0x00000000, ABSOLUTE)

    Exec Addr    Load Addr    Size         Type   Attr      Idx    E Section Name        Object

    0x00000000        -       0x00000000   Zero   RW           35    .flash.startof.bss  anon$$obj.o


    Execution Region _VECTORS (Exec base: 0x00000000, Load base: 0x00000000, Size: 0x00000000, Max: 0x00000000, ABSOLUTE)

    Exec Addr    Load Addr    Size         Type   Attr      Idx    E Section Name        Object

    0x00000000        -       0x00000000   Zero   RW           36    _VECTORS.bss        anon$$obj.o


    Execution Region __flash_vectors (Exec base: 0x00000000, Load base: 0x00000000, Size: 0x00000098, Max: 0xffffffff, ABSOLUTE, FIXED)

    Exec Addr    Load Addr    Size         Type   Attr      Idx    E Section Name        Object

    0x00000000   0x00000000   0x00000040   Data   RO          259    .fixed_vectors      startup.o
    0x00000040   0x00000040   0x00000058   Data   RO          626    .application_vectors  vector_data.o


    Execution Region __flash_noinit (Exec base: 0x00000098, Load base: 0x00000098, Size: 0x00000000, Max: 0xffffffff, ABSOLUTE, UNINIT, FIXED)

    **** No section assigned to this execution region ****


    Execution Region __ram_from_data_flash_jump (Exec base: 0x20000000, Load base: 0x00000098, Size: 0x00000000, Max: 0x00000000, ABSOLUTE)

    Exec Addr    Load Addr    Size         Type   Attr      Idx    E Section Name        Object

    0x20000000        -       0x00000000   Zero   RW           42    __ram_from_data_flash_jump.bss  anon$$obj.o


    Execution Region __ram_from_flash (Exec base: 0x20000000, Load base: 0x00000098, Size: 0x00000054, Max: 0xffffffff, ABSOLUTE)

    Exec Addr    Load Addr    Size         Type   Attr      Idx    E Section Name        Object

    0x20000000   0x00000098   0x00000004   Data   RW          209    .data.Dht22         driver_dht22_1.o
    0x20000004   0x0000009c   0x0000000c   Data   RW          230    .data.Uart8         driver_uart_1.o
    0x20000010   0x000000a8   0x0000000c   Data   RW          229    .data.UartFace      driver_uart_1.o
    0x2000001c   0x000000b4   0x0000000c   Data   RW          227    .data.UartHmi       driver_uart_1.o
    0x20000028   0x000000c0   0x0000000c   Data   RW          228    .data.UartPc        driver_uart_1.o
    0x20000034   0x000000cc   0x0000000c   Data   RW          226    .data.UartSensor    driver_uart_1.o
    0x20000040   0x000000d8   0x00000004   Data   RW          599    .data.g_uart2_baud_setting  hal_data.o
    0x20000044   0x000000dc   0x00000004   Data   RW          594    .data.g_uart4_baud_setting  hal_data.o
    0x20000048   0x000000e0   0x00000004   Data   RW          589    .data.g_uart7_baud_setting  hal_data.o
    0x2000004c   0x000000e4   0x00000004   Data   RW          579    .data.g_uart8_baud_setting  hal_data.o
    0x20000050   0x000000e8   0x00000004   Data   RW          584    .data.g_uart9_baud_setting  hal_data.o


    Execution Region __ram_noinit_nocache (Exec base: 0x20000060, Load base: 0x000000ec, Size: 0x00000000, Max: 0xffffffff, ABSOLUTE, UNINIT)

    **** No section assigned to this execution region ****


    Execution Region __ram_zero_nocache (Exec base: 0x20000060, Load base: 0x000000ec, Size: 0x00000000, Max: 0xffffffff, ABSOLUTE)

    **** No section assigned to this execution region ****


    Execution Region __ram_zero_nocache_pad (Exec base: 0x20000060, Load base: 0x000000ec, Size: 0x00000000, Max: 0x00000000, ABSOLUTE)

    Exec Addr    Load Addr    Size         Type   Attr      Idx    E Section Name        Object

    0x20000060        -       0x00000000   Zero   RW           43    __ram_zero_nocache_pad.bss  anon$$obj.o


    Execution Region __ram_noinit (Exec base: 0x20000060, Load base: 0x000000ec, Size: 0x00000000, Max: 0xffffffff, ABSOLUTE, UNINIT)

    **** No section assigned to this execution region ****


    Execution Region ARM_LIB_STACK (Exec base: 0x20000060, Load base: 0x000000ec, Size: 0x00000000, Max: 0x00000000, ABSOLUTE, UNINIT)

    Exec Addr    Load Addr    Size         Type   Attr      Idx    E Section Name        Object

    0x20000060        -       0x00000000   Zero   RW           44    ARM_LIB_STACK.bss   anon$$obj.o


    Execution Region ARM_LIB_HEAP (Exec base: 0x20000060, Load base: 0x000000ec, Size: 0x00000000, Max: 0xffffffff, ABSOLUTE, UNINIT)

    Exec Addr    Load Addr    Size         Type   Attr      Idx    E Section Name        Object

    0x20000060        -       0x00000000   Zero   RW          260    .bss.g_heap         startup.o


    Execution Region __post_heap (Exec base: 0x20000060, Load base: 0x000000ec, Size: 0x0000041c, Max: 0xffffffff, ABSOLUTE, UNINIT)

    Exec Addr    Load Addr    Size         Type   Attr      Idx    E Section Name        Object

    0x20000060        -       0x00000400   Zero   RW          258    .bss.g_main_stack   startup.o
    0x20000460        -       0x0000001c   Zero   RW          305    .bss.ram_noinit     bsp_clocks.o


    Execution Region __ram_zero (Exec base: 0x2000047c, Load base: 0x000000ec, Size: 0x00000678, Max: 0xffffffff, ABSOLUTE)

    Exec Addr    Load Addr    Size         Type   Attr      Idx    E Section Name        Object

    0x2000047c        -       0x00000004   Zero   RW          274    .bss.SystemCoreClock  system.o
    0x20000480        -       0x00000001   Zero   RW          173    .bss.Task_CO2.add_rest_count  hal_entry_1.o
    0x20000481   0x000000ec   0x00000001   PAD
    0x20000482        -       0x00000002   Zero   RW          174    .bss.Task_CO2.add_send_count  hal_entry_1.o
    0x20000484        -       0x00000002   Zero   RW          172    .bss.Task_CO2.low_co2_count  hal_entry_1.o
    0x20000486        -       0x00000010   Zero   RW          170    .bss.Task_CO2.rx_frame  hal_entry_1.o
    0x20000496        -       0x00000001   Zero   RW          171    .bss.Task_CO2.rx_index  hal_entry_1.o
    0x20000497   0x000000ec   0x00000001   PAD
    0x20000498        -       0x00000004   Zero   RW          168    .bss.Task_DHT22.dht22_read_tick  hal_entry_1.o
    0x2000049c        -       0x00000100   Zero   RW          182    .bss.Task_Face.sci9_rx_frame  hal_entry_1.o
    0x2000059c        -       0x00000004   Zero   RW          184    .bss.Task_Face.sci9_rx_idle_tick  hal_entry_1.o
    0x200005a0        -       0x00000002   Zero   RW          183    .bss.Task_Face.sci9_rx_idx  hal_entry_1.o
    0x200005a2        -       0x00000040   Zero   RW          175    .bss.Task_HMI.hmi_rx_frame  hal_entry_1.o
    0x200005e2   0x000000ec   0x00000002   PAD
    0x200005e4        -       0x00000004   Zero   RW          177    .bss.Task_HMI.hmi_rx_idle_tick  hal_entry_1.o
    0x200005e8        -       0x00000002   Zero   RW          176    .bss.Task_HMI.hmi_rx_idx  hal_entry_1.o
    0x200005ea   0x000000ec   0x00000002   PAD
    0x200005ec        -       0x00000004   Zero   RW          189    .bss.Task_Light.light_tick  hal_entry_1.o
    0x200005f0        -       0x00000200   Zero   RW          186    .bss.Task_Uart8.rx_frame  hal_entry_1.o
    0x200007f0        -       0x00000004   Zero   RW          188    .bss.Task_Uart8.rx_idle_tick  hal_entry_1.o
    0x200007f4        -       0x00000002   Zero   RW          187    .bss.Task_Uart8.rx_idx  hal_entry_1.o
    0x200007f6        -       0x00000100   Zero   RW          231    .bss.Uart_Printf.buffer  driver_uart_1.o
    0x200008f6   0x000000ec   0x00000002   PAD
    0x200008f8        -       0x00000008   Zero   RW          167    .bss.g_bh1750       hal_entry_1.o
    0x20000900        -       0x00000040   Zero   RW          347    .bss.g_bsp_group_irq_sources  bsp_group_irq.o
    0x20000940        -       0x00000004   Zero   RW          180    .bss.g_face_delay_tick  hal_entry_1.o
    0x20000944        -       0x00000001   Zero   RW          179    .bss.g_face_state   hal_entry_1.o
    0x20000945   0x000000ec   0x00000003   PAD
    0x20000948        -       0x00000048   Zero   RW          577    .bss.g_i2c5_ctrl    hal_data.o
    0x20000990        -       0x00000001   Zero   RW          166    .bss.g_i2c_aborted  hal_entry_1.o
    0x20000991        -       0x00000001   Zero   RW          165    .bss.g_i2c_completed  hal_entry_1.o
    0x20000992   0x000000ec   0x00000002   PAD
    0x20000994        -       0x00000008   Zero   RW          565    .bss.g_ioport_ctrl  common_data.o
    0x2000099c        -       0x0000000a   Zero   RW          381    .bss.g_protect_counters  bsp_register_protection.o
    0x200009a6   0x000000ec   0x00000002   PAD
    0x200009a8        -       0x00000004   Zero   RW          357    .bss.g_protect_pfswe_counter  bsp_io.o
    0x200009ac        -       0x00000030   Zero   RW          602    .bss.g_uart2_ctrl   hal_data.o
    0x200009dc        -       0x00000030   Zero   RW          597    .bss.g_uart4_ctrl   hal_data.o
    0x20000a0c        -       0x00000030   Zero   RW          592    .bss.g_uart7_ctrl   hal_data.o
    0x20000a3c        -       0x00000030   Zero   RW          582    .bss.g_uart8_ctrl   hal_data.o
    0x20000a6c        -       0x00000030   Zero   RW          587    .bss.g_uart9_ctrl   hal_data.o
    0x20000a9c        -       0x00000058   Zero   RW          367    .bss.gp_renesas_isr_context  bsp_irq.o


    Execution Region __ram_thread_stack (Exec base: 0x20000af8, Load base: 0x000000ec, Size: 0x00000000, Max: 0xffffffff, ABSOLUTE, UNINIT)

    **** No section assigned to this execution region ****


    Execution Region __ddsc_RAM_END (Exec base: 0x20000c00, Load base: 0x000000ec, Size: 0x00000000, Max: 0x00000000, ABSOLUTE)

    Exec Addr    Load Addr    Size         Type   Attr      Idx    E Section Name        Object

    0x20000c00        -       0x00000000   Zero   RW           45    __ddsc_RAM_END.bss  anon$$obj.o


    Execution Region .ram.endof (Exec base: 0x20000c00, Load base: 0x000000ec, Size: 0x00000000, Max: 0x00000000, ABSOLUTE)

    Exec Addr    Load Addr    Size         Type   Attr      Idx    E Section Name        Object

    0x20000c00        -       0x00000000   Zero   RW           46    .ram.endof.bss      anon$$obj.o


    Execution Region __ddsc_RAM_NSC (Exec base: 0x20000c00, Load base: 0x000000ec, Size: 0x00000000, Max: 0x00000000, ABSOLUTE)

    Exec Addr    Load Addr    Size         Type   Attr      Idx    E Section Name        Object

    0x20000c00        -       0x00000000   Zero   RW           47    __ddsc_RAM_NSC.bss  anon$$obj.o


    Execution Region .ram.flat_nsc (Exec base: 0x20000c00, Load base: 0x000000ec, Size: 0x00000000, Max: 0x00000000, ABSOLUTE)

    Exec Addr    Load Addr    Size         Type   Attr      Idx    E Section Name        Object

    0x20000c00        -       0x00000000   Zero   RW           48    .ram.flat_nsc.bss   anon$$obj.o


    Execution Region __RAM_end (Exec base: 0x20000c00, Load base: 0x000000ec, Size: 0x00000000, Max: 0x00000000, ABSOLUTE)

    Exec Addr    Load Addr    Size         Type   Attr      Idx    E Section Name        Object

    0x20000c00        -       0x00000000   Zero   RW           49    __RAM_end.bss       anon$$obj.o


    Execution Region __ospi0_cs0_from_data_flash_jump (Exec base: 0x68000000, Load base: 0x00000098, Size: 0x00000000, Max: 0x00000000, ABSOLUTE)

    Exec Addr    Load Addr    Size         Type   Attr      Idx    E Section Name        Object

    0x68000000        -       0x00000000   Zero   RW           37    __ospi0_cs0_from_data_flash_jump.bss  anon$$obj.o


    Execution Region __ospi0_cs0_from_flash (Exec base: 0x68000000, Load base: 0x00000098, Size: 0x00000000, Max: 0xffffffff, ABSOLUTE)

    **** No section assigned to this execution region ****


    Execution Region __ospi0_cs0_noinit_nocache (Exec base: 0x68000000, Load base: 0x00000098, Size: 0x00000000, Max: 0xffffffff, ABSOLUTE, UNINIT)

    **** No section assigned to this execution region ****


    Execution Region __ospi0_cs0_zero_nocache (Exec base: 0x68000000, Load base: 0x00000098, Size: 0x00000000, Max: 0xffffffff, ABSOLUTE)

    **** No section assigned to this execution region ****


    Execution Region __ospi0_cs0_zero_nocache_pad (Exec base: 0x68000000, Load base: 0x00000098, Size: 0x00000000, Max: 0x00000000, ABSOLUTE)

    Exec Addr    Load Addr    Size         Type   Attr      Idx    E Section Name        Object

    0x68000000        -       0x00000000   Zero   RW           38    __ospi0_cs0_zero_nocache_pad.bss  anon$$obj.o


    Execution Region __ospi0_cs0_noinit (Exec base: 0x68000000, Load base: 0x00000098, Size: 0x00000000, Max: 0xffffffff, ABSOLUTE, UNINIT)

    **** No section assigned to this execution region ****


    Execution Region __ospi0_cs0_zero (Exec base: 0x68000000, Load base: 0x00000098, Size: 0x00000000, Max: 0xffffffff, ABSOLUTE)

    **** No section assigned to this execution region ****


    Execution Region __ddsc_OSPI0_CS0_END (Exec base: 0x68000000, Load base: 0x00000098, Size: 0x00000000, Max: 0x00000000, ABSOLUTE)

    Exec Addr    Load Addr    Size         Type   Attr      Idx    E Section Name        Object

    0x68000000        -       0x00000000   Zero   RW           39    __ddsc_OSPI0_CS0_END.bss  anon$$obj.o


    Execution Region .ospi0_cs0.endof (Exec base: 0x68000000, Load base: 0x00000098, Size: 0x00000000, Max: 0x00000000, ABSOLUTE)

    Exec Addr    Load Addr    Size         Type   Attr      Idx    E Section Name        Object

    0x68000000        -       0x00000000   Zero   RW           40    .ospi0_cs0.endof.bss  anon$$obj.o


    Execution Region __OSPI0_CS0_end (Exec base: 0x68000000, Load base: 0x00000098, Size: 0x00000000, Max: 0x00000000, ABSOLUTE)

    Exec Addr    Load Addr    Size         Type   Attr      Idx    E Section Name        Object

    0x68000000        -       0x00000000   Zero   RW           41    __OSPI0_CS0_end.bss  anon$$obj.o



  Load Region LOAD_REGION_FLASH_JUMP (Base: 0x000000ec, Size: 0x00003590, Max: 0xffffffff, ABSOLUTE)

    Execution Region __flash_readonly (Exec base: 0x000000ec, Load base: 0x000000ec, Size: 0x00003590, Max: 0xffffffff, ABSOLUTE, FIXED)

    Exec Addr    Load Addr    Size         Type   Attr      Idx    E Section Name        Object

    0x000000ec   0x000000ec   0x00000024   Code   RO          636    .text               mc_w.l(memcpya.o)
    0x00000110   0x00000110   0x00000024   Code   RO          638    .text               mc_w.l(memseta.o)
    0x00000134   0x00000134   0x0000001a   Code   RO          640    .text               mc_w.l(memcmp.o)
    0x0000014e   0x0000014e   0x00000026   Code   RO          905    .text               mf_w.l(f2d.o)
    0x00000174   0x00000174   0x0000002c   Code   RO          921    .text               mc_w.l(uidiv.o)
    0x000001a0   0x000001a0   0x00000062   Code   RO          923    .text               mc_w.l(uldiv.o)
    0x00000202   0x00000202   0x00000000   Code   RO          925    .text               mc_w.l(iusefp.o)
    0x00000202   0x00000202   0x0000014e   Code   RO          926    .text               mf_w.l(dadd.o)
    0x00000350   0x00000350   0x000000e4   Code   RO          928    .text               mf_w.l(dmul.o)
    0x00000434   0x00000434   0x000000de   Code   RO          930    .text               mf_w.l(ddiv.o)
    0x00000512   0x00000512   0x00000030   Code   RO          932    .text               mf_w.l(dfixul.o)
    0x00000542   0x00000542   0x00000002   PAD
    0x00000544   0x00000544   0x00000030   Code   RO          934    .text               mf_w.l(cdrcmple.o)
    0x00000574   0x00000574   0x0000001e   Code   RO          937    .text               mc_w.l(llshl.o)
    0x00000592   0x00000592   0x00000020   Code   RO          939    .text               mc_w.l(llushr.o)
    0x000005b2   0x000005b2   0x00000024   Code   RO          941    .text               mc_w.l(llsshr.o)
    0x000005d6   0x000005d6   0x000000ba   Code   RO          944    .text               mf_w.l(depilogue.o)
    0x00000690   0x00000690   0x00000046   Code   RO          240    .text.Bh1750_Init   driver_bh1750_1.o
    0x000006d6   0x000006d6   0x00000002   PAD
    0x000006d8   0x000006d8   0x000000ac   Code   RO          244    .text.Bh1750_ReadLux  driver_bh1750_1.o
    0x00000784   0x00000784   0x00000004   Code   RO          256    .text.Default_Handler  startup.o
    0x00000788   0x00000788   0x000001ac   Code   RO          207    .text.Dht22_Read    driver_dht22_1.o
    0x00000934   0x00000934   0x00000038   Code   RO          163    .text.Hmi_SendCmd   hal_entry_1.o
    0x0000096c   0x0000096c   0x00000044   Code   RO          345    .text.NMI_Handler   bsp_group_irq.o
    0x000009b0   0x000009b0   0x0000007a   Code   RO          303    .text.R_BSP_Init_RTC  bsp_clocks.o
    0x00000a2a   0x00000a2a   0x0000004e   Code   RO          379    .text.R_BSP_RegisterProtectDisable  bsp_register_protection.o
    0x00000a78   0x00000a78   0x00000052   Code   RO          377    .text.R_BSP_RegisterProtectEnable  bsp_register_protection.o
    0x00000aca   0x00000aca   0x00000084   Code   RO          331    .text.R_BSP_SoftwareDelay  bsp_delay.o
    0x00000b4e   0x00000b4e   0x00000002   Code   RO          297    .text.R_BSP_SubClockStabilizeWaitAfterReset  bsp_clocks.o
    0x00000b50   0x00000b50   0x0000001a   Code   RO          198    .text.R_BSP_WarmStart  hal_warmstart_1.o
    0x00000b6a   0x00000b6a   0x00000016   Code   RO          446    .text.R_IOPORT_Open  r_ioport.o
    0x00000b80   0x00000b80   0x000000b2   Code   RO          452    .text.R_IOPORT_PinCfg  r_ioport.o
    0x00000c32   0x00000c32   0x00000022   Code   RO          458    .text.R_IOPORT_PinRead  r_ioport.o
    0x00000c54   0x00000c54   0x00000028   Code   RO          460    .text.R_IOPORT_PinWrite  r_ioport.o
    0x00000c7c   0x00000c7c   0x00000028   Code   RO          491    .text.R_SCI_I2C_Abort  r_sci_i2c.o
    0x00000ca4   0x00000ca4   0x0000000e   Code   RO          495    .text.R_SCI_I2C_CallbackSet  r_sci_i2c.o
    0x00000cb2   0x00000cb2   0x00000056   Code   RO          499    .text.R_SCI_I2C_Close  r_sci_i2c.o
    0x00000d08   0x00000d08   0x0000015a   Code   RO          485    .text.R_SCI_I2C_Open  r_sci_i2c.o
    0x00000e62   0x00000e62   0x00000010   Code   RO          487    .text.R_SCI_I2C_Read  r_sci_i2c.o
    0x00000e72   0x00000e72   0x0000000a   Code   RO          493    .text.R_SCI_I2C_SlaveAddressSet  r_sci_i2c.o
    0x00000e7c   0x00000e7c   0x00000018   Code   RO          497    .text.R_SCI_I2C_StatusGet  r_sci_i2c.o
    0x00000e94   0x00000e94   0x00000010   Code   RO          489    .text.R_SCI_I2C_Write  r_sci_i2c.o
    0x00000ea4   0x00000ea4   0x0000033c   Code   RO          518    .text.R_SCI_UART_Open  r_sci_uart.o
    0x000011e0   0x000011e0   0x0000000a   Code   RO          520    .text.R_SCI_UART_Read  r_sci_uart.o
    0x000011ea   0x000011ea   0x0000004c   Code   RO          522    .text.R_SCI_UART_Write  r_sci_uart.o
    0x00001236   0x00001236   0x00000002   PAD
    0x00001238   0x00001238   0x0000000a   Code   RO          254  * .text.Reset_Handler  startup.o
    0x00001242   0x00001242   0x0000002c   Code   RO          287    .text.SystemCoreClockUpdate  bsp_clocks.o
    0x0000126e   0x0000126e   0x00000002   PAD
    0x00001270   0x00001270   0x000000a2   Code   RO          268    .text.SystemInit    system.o
    0x00001312   0x00001312   0x00000002   PAD
    0x00001314   0x00001314   0x0000005a   Code   RO          272    .text.SystemRuntimeInit  system.o
    0x0000136e   0x0000136e   0x00000008   Code   RO          218    .text.Uart_Init     driver_uart_1.o
    0x00001376   0x00001376   0x00000002   PAD
    0x00001378   0x00001378   0x00000050   Code   RO          224    .text.Uart_Printf   driver_uart_1.o
    0x000013c8   0x000013c8   0x00000020   Code   RO          222    .text.Uart_Send     driver_uart_1.o
    0x000013e8   0x000013e8   0x0000000c   Code   RO          220    .text.Uart_StartRx  driver_uart_1.o
    0x000013f4   0x000013f4   0x00000068   Code   RO          242    .text.bh1750_write_cmd  driver_bh1750_1.o
    0x0000145c   0x0000145c   0x0000013c   Code   RO          293    .text.bsp_clock_init  bsp_clocks.o
    0x00001598   0x00001598   0x00000002   Code   RO          314    .text.bsp_init_internal  bsp_common.o
    0x0000159a   0x0000159a   0x00000002   PAD
    0x0000159c   0x0000159c   0x0000008a   Code   RO          364    .text.bsp_irq_cfg   bsp_irq.o
    0x00001626   0x00001626   0x00000008   Code   RO          333    .text.bsp_prv_software_delay_loop  bsp_delay.o
    0x0000162e   0x0000162e   0x00000002   PAD
    0x00001630   0x00001630   0x000000d8   Code   RO          474    .text.bsp_vbatt_init  r_ioport.o
    0x00001708   0x00001708   0x000007f4   Code   RO          161    .text.hal_entry     hal_entry_1.o
    0x00001efc   0x00001efc   0x0000000a   Code   RO          610    .text.main          main.o
    0x00001f06   0x00001f06   0x00000002   PAD
    0x00001f08   0x00001f08   0x000000c0   Code   RO          472    .text.r_ioport_pins_config  r_ioport.o
    0x00001fc8   0x00001fc8   0x00000040   Code   RO          544    .text.r_sci_uart_call_callback  r_sci_uart.o
    0x00002008   0x00002008   0x00000032   Code   RO          149    .text.sci_i2c_master_callback  hal_entry_1.o
    0x0000203a   0x0000203a   0x00000098   Code   RO          501    .text.sci_i2c_read_write  r_sci_i2c.o
    0x000020d2   0x000020d2   0x0000011c   Code   RO          507    .text.sci_i2c_tei_isr  r_sci_i2c.o
    0x000021ee   0x000021ee   0x00000128   Code   RO          505    .text.sci_i2c_txi_isr  r_sci_i2c.o
    0x00002316   0x00002316   0x0000006a   Code   RO          550    .text.sci_uart_eri_isr  r_sci_uart.o
    0x00002380   0x00002380   0x00000088   Code   RO          546    .text.sci_uart_rxi_isr  r_sci_uart.o
    0x00002408   0x00002408   0x0000004a   Code   RO          548    .text.sci_uart_tei_isr  r_sci_uart.o
    0x00002452   0x00002452   0x00000088   Code   RO          542    .text.sci_uart_txi_isr  r_sci_uart.o
    0x000024da   0x000024da   0x00000016   Code   RO          151    .text.uart2_callback  hal_entry_1.o
    0x000024f0   0x000024f0   0x00000028   Code   RO          153    .text.uart4_callback  hal_entry_1.o
    0x00002518   0x00002518   0x00000016   Code   RO          155    .text.uart7_callback  hal_entry_1.o
    0x0000252e   0x0000252e   0x00000028   Code   RO          159    .text.uart8_callback  hal_entry_1.o
    0x00002556   0x00002556   0x00000028   Code   RO          157    .text.uart9_callback  hal_entry_1.o
    0x0000257e   0x0000257e   0x00000002   PAD
    0x00002580   0x00002580   0x00000034   Code   RO          878    i.__0snprintf       mc_w.l(printfa.o)
    0x000025b4   0x000025b4   0x00000034   Code   RO          882    i.__0vsnprintf      mc_w.l(printfa.o)
    0x000025e8   0x000025e8   0x00000184   Code   RO          884    i._fp_digits        mc_w.l(printfa.o)
    0x0000276c   0x0000276c   0x000006dc   Code   RO          885    i._printf_core      mc_w.l(printfa.o)
    0x00002e48   0x00002e48   0x00000024   Code   RO          886    i._printf_post_padding  mc_w.l(printfa.o)
    0x00002e6c   0x00002e6c   0x0000002e   Code   RO          887    i._printf_pre_padding  mc_w.l(printfa.o)
    0x00002e9a   0x00002e9a   0x00000016   Code   RO          888    i._snputc           mc_w.l(printfa.o)
    0x00002eb0   0x00002eb0   0x00000008   Data   RO          185    .rodata.Task_Face.reco_cmd  hal_entry_1.o
    0x00002eb8   0x00002eb8   0x00000006   Data   RO          181    .rodata.Task_HMI.enroll_cmd  hal_entry_1.o
    0x00002ebe   0x00002ebe   0x00000006   Data   RO          178    .rodata.Task_HMI.reset_cmd  hal_entry_1.o
    0x00002ec4   0x00002ec4   0x00000080   Data   RO          438    .rodata.copy_list   bsp_linker.o
    0x00002f44   0x00002f44   0x0000000c   Data   RO          620    .rodata.g_bsp_pin_cfg  pin_data.o
    0x00002f50   0x00002f50   0x00000078   Data   RO          619    .rodata.g_bsp_pin_cfg_data  pin_data.o
    0x00002fc8   0x00002fc8   0x0000000c   Data   RO          578    .rodata.g_i2c5      hal_data.o
    0x00002fd4   0x00002fd4   0x00000038   Data   RO          576    .rodata.g_i2c5_cfg  hal_data.o
    0x0000300c   0x0000300c   0x00000006   Data   RO          575    .rodata.g_i2c5_cfg_extend  hal_data.o
    0x00003012   0x00003012   0x00000002   PAD
    0x00003014   0x00003014   0x00000020   Data   RO          509    .rodata.g_i2c_master_on_sci  r_sci_i2c.o
    0x00003034   0x00003034   0x00000018   Data   RO          440    .rodata.g_init_info  bsp_linker.o
    0x0000304c   0x0000304c   0x00000058   Data   RO          627    .rodata.g_interrupt_event_link_select  vector_data.o
    0x000030a4   0x000030a4   0x0000000a   Data   RO          382    .rodata.g_prcr_masks  bsp_register_protection.o
    0x000030ae   0x000030ae   0x00000002   PAD
    0x000030b0   0x000030b0   0x00000044   Data   RO          601    .rodata.g_uart2_cfg  hal_data.o
    0x000030f4   0x000030f4   0x0000002c   Data   RO          600    .rodata.g_uart2_cfg_extend  hal_data.o
    0x00003120   0x00003120   0x00000044   Data   RO          596    .rodata.g_uart4_cfg  hal_data.o
    0x00003164   0x00003164   0x0000002c   Data   RO          595    .rodata.g_uart4_cfg_extend  hal_data.o
    0x00003190   0x00003190   0x00000044   Data   RO          591    .rodata.g_uart7_cfg  hal_data.o
    0x000031d4   0x000031d4   0x0000002c   Data   RO          590    .rodata.g_uart7_cfg_extend  hal_data.o
    0x00003200   0x00003200   0x00000044   Data   RO          581    .rodata.g_uart8_cfg  hal_data.o
    0x00003244   0x00003244   0x0000002c   Data   RO          580    .rodata.g_uart8_cfg_extend  hal_data.o
    0x00003270   0x00003270   0x00000044   Data   RO          586    .rodata.g_uart9_cfg  hal_data.o
    0x000032b4   0x000032b4   0x0000002c   Data   RO          585    .rodata.g_uart9_cfg_extend  hal_data.o
    0x000032e0   0x000032e0   0x00000004   Data   RO          404    .rodata.gp_ddsc_DATA_FLASH_END  bsp_linker.o
    0x000032e4   0x000032e4   0x00000004   Data   RO          403    .rodata.gp_ddsc_DATA_FLASH_START  bsp_linker.o
    0x000032e8   0x000032e8   0x00000004   Data   RO          406    .rodata.gp_ddsc_FLASH_END  bsp_linker.o
    0x000032ec   0x000032ec   0x00000004   Data   RO          407    .rodata.gp_ddsc_FLASH_NSC  bsp_linker.o
    0x000032f0   0x000032f0   0x00000004   Data   RO          405    .rodata.gp_ddsc_FLASH_START  bsp_linker.o
    0x000032f4   0x000032f4   0x00000004   Data   RO          418    .rodata.gp_ddsc_OPTION_SETTING_BANKSEL_END  bsp_linker.o
    0x000032f8   0x000032f8   0x00000004   Data   RO          426    .rodata.gp_ddsc_OPTION_SETTING_BANKSEL_SEC_END  bsp_linker.o
    0x000032fc   0x000032fc   0x00000004   Data   RO          425    .rodata.gp_ddsc_OPTION_SETTING_BANKSEL_SEC_START  bsp_linker.o
    0x00003300   0x00003300   0x00000004   Data   RO          434    .rodata.gp_ddsc_OPTION_SETTING_BANKSEL_SEL_END  bsp_linker.o
    0x00003304   0x00003304   0x00000004   Data   RO          433    .rodata.gp_ddsc_OPTION_SETTING_BANKSEL_SEL_START  bsp_linker.o
    0x00003308   0x00003308   0x00000004   Data   RO          417    .rodata.gp_ddsc_OPTION_SETTING_BANKSEL_START  bsp_linker.o
    0x0000330c   0x0000330c   0x00000004   Data   RO          420    .rodata.gp_ddsc_OPTION_SETTING_BPS_END  bsp_linker.o
    0x00003310   0x00003310   0x00000004   Data   RO          428    .rodata.gp_ddsc_OPTION_SETTING_BPS_SEC_END  bsp_linker.o
    0x00003314   0x00003314   0x00000004   Data   RO          427    .rodata.gp_ddsc_OPTION_SETTING_BPS_SEC_START  bsp_linker.o
    0x00003318   0x00003318   0x00000004   Data   RO          436    .rodata.gp_ddsc_OPTION_SETTING_BPS_SEL_END  bsp_linker.o
    0x0000331c   0x0000331c   0x00000004   Data   RO          435    .rodata.gp_ddsc_OPTION_SETTING_BPS_SEL_START  bsp_linker.o
    0x00003320   0x00003320   0x00000004   Data   RO          419    .rodata.gp_ddsc_OPTION_SETTING_BPS_START  bsp_linker.o
    0x00003324   0x00003324   0x00000004   Data   RO          414    .rodata.gp_ddsc_OPTION_SETTING_DUALSEL_END  bsp_linker.o
    0x00003328   0x00003328   0x00000004   Data   RO          413    .rodata.gp_ddsc_OPTION_SETTING_DUALSEL_START  bsp_linker.o
    0x0000332c   0x0000332c   0x00000004   Data   RO          412    .rodata.gp_ddsc_OPTION_SETTING_OFS0_END  bsp_linker.o
    0x00003330   0x00003330   0x00000004   Data   RO          411    .rodata.gp_ddsc_OPTION_SETTING_OFS0_START  bsp_linker.o
    0x00003334   0x00003334   0x00000004   Data   RO          416    .rodata.gp_ddsc_OPTION_SETTING_OFS1_END  bsp_linker.o
    0x00003338   0x00003338   0x00000004   Data   RO          424    .rodata.gp_ddsc_OPTION_SETTING_OFS1_SEC_END  bsp_linker.o
    0x0000333c   0x0000333c   0x00000004   Data   RO          423    .rodata.gp_ddsc_OPTION_SETTING_OFS1_SEC_START  bsp_linker.o
    0x00003340   0x00003340   0x00000004   Data   RO          432    .rodata.gp_ddsc_OPTION_SETTING_OFS1_SEL_END  bsp_linker.o
    0x00003344   0x00003344   0x00000004   Data   RO          431    .rodata.gp_ddsc_OPTION_SETTING_OFS1_SEL_START  bsp_linker.o
    0x00003348   0x00003348   0x00000004   Data   RO          415    .rodata.gp_ddsc_OPTION_SETTING_OFS1_START  bsp_linker.o
    0x0000334c   0x0000334c   0x00000004   Data   RO          422    .rodata.gp_ddsc_OPTION_SETTING_PBPS_END  bsp_linker.o
    0x00003350   0x00003350   0x00000004   Data   RO          430    .rodata.gp_ddsc_OPTION_SETTING_PBPS_SEC_END  bsp_linker.o
    0x00003354   0x00003354   0x00000004   Data   RO          429    .rodata.gp_ddsc_OPTION_SETTING_PBPS_SEC_START  bsp_linker.o
    0x00003358   0x00003358   0x00000004   Data   RO          421    .rodata.gp_ddsc_OPTION_SETTING_PBPS_START  bsp_linker.o
    0x0000335c   0x0000335c   0x00000004   Data   RO          402    .rodata.gp_ddsc_OSPI0_CS0_END  bsp_linker.o
    0x00003360   0x00003360   0x00000004   Data   RO          401    .rodata.gp_ddsc_OSPI0_CS0_START  bsp_linker.o
    0x00003364   0x00003364   0x00000004   Data   RO          400    .rodata.gp_ddsc_OSPI0_CS1_END  bsp_linker.o
    0x00003368   0x00003368   0x00000004   Data   RO          399    .rodata.gp_ddsc_OSPI0_CS1_START  bsp_linker.o
    0x0000336c   0x0000336c   0x00000004   Data   RO          398    .rodata.gp_ddsc_QSPI_FLASH_END  bsp_linker.o
    0x00003370   0x00003370   0x00000004   Data   RO          397    .rodata.gp_ddsc_QSPI_FLASH_START  bsp_linker.o
    0x00003374   0x00003374   0x00000004   Data   RO          409    .rodata.gp_ddsc_RAM_END  bsp_linker.o
    0x00003378   0x00003378   0x00000004   Data   RO          410    .rodata.gp_ddsc_RAM_NSC  bsp_linker.o
    0x0000337c   0x0000337c   0x00000004   Data   RO          408    .rodata.gp_ddsc_RAM_START  bsp_linker.o
    0x00003380   0x00003380   0x00000010   Data   RO          439    .rodata.nocache_list  bsp_linker.o
    0x00003390   0x00003390   0x0000026a   Data   RO          169    .rodata.str1.1      hal_entry_1.o
    0x000035fa   0x000035fa   0x00000002   PAD
    0x000035fc   0x000035fc   0x00000030   Data   RO          437    .rodata.zero_list   bsp_linker.o
    0x0000362c   0x0000362c   0x00000004   Data   RO          320    .version            bsp_common.o
    0x00003630   0x00003630   0x00000006   Data   RO          321    .version            bsp_common.o
    0x00003636   0x00003636   0x00000044   Data   RO          322    .version            bsp_common.o


    Execution Region __init_array_start (Exec base: 0x0000367c, Load base: 0x0000367c, Size: 0x00000000, Max: 0x00000000, ABSOLUTE)

    Exec Addr    Load Addr    Size         Type   Attr      Idx    E Section Name        Object

    0x0000367c        -       0x00000000   Zero   RW           50    __init_array_start.bss  anon$$obj.o


    Execution Region __flash_init_array (Exec base: 0x0000367c, Load base: 0x0000367c, Size: 0x00000000, Max: 0xffffffff, ABSOLUTE, FIXED)

    **** No section assigned to this execution region ****


    Execution Region __init_array_end (Exec base: 0x0000367c, Load base: 0x0000367c, Size: 0x00000000, Max: 0x00000000, ABSOLUTE)

    Exec Addr    Load Addr    Size         Type   Attr      Idx    E Section Name        Object

    0x0000367c        -       0x00000000   Zero   RW           51    __init_array_end.bss  anon$$obj.o


    Execution Region __ddsc_FLASH_END (Exec base: 0x00003800, Load base: 0x0000367c, Size: 0x00000000, Max: 0x00000000, ABSOLUTE)

    Exec Addr    Load Addr    Size         Type   Attr      Idx    E Section Name        Object

    0x00003800        -       0x00000000   Zero   RW           52    __ddsc_FLASH_END.bss  anon$$obj.o


    Execution Region .flash.endof (Exec base: 0x00003800, Load base: 0x0000367c, Size: 0x00000000, Max: 0x00000000, ABSOLUTE)

    Exec Addr    Load Addr    Size         Type   Attr      Idx    E Section Name        Object

    0x00003800        -       0x00000000   Zero   RW           53    .flash.endof.bss    anon$$obj.o


    Execution Region __ddsc_FLASH_NSC (Exec base: 0x00003800, Load base: 0x0000367c, Size: 0x00000000, Max: 0x00000000, ABSOLUTE)

    Exec Addr    Load Addr    Size         Type   Attr      Idx    E Section Name        Object

    0x00003800        -       0x00000000   Zero   RW           54    __ddsc_FLASH_NSC.bss  anon$$obj.o


    Execution Region .flash.flat_nsc (Exec base: 0x00003800, Load base: 0x0000367c, Size: 0x00000000, Max: 0x00000000, ABSOLUTE)

    Exec Addr    Load Addr    Size         Type   Attr      Idx    E Section Name        Object

    0x00003800        -       0x00000000   Zero   RW           55    .flash.flat_nsc.bss  anon$$obj.o


    Execution Region __FLASH_end (Exec base: 0x00003800, Load base: 0x0000367c, Size: 0x00000000, Max: 0x00000000, ABSOLUTE)

    Exec Addr    Load Addr    Size         Type   Attr      Idx    E Section Name        Object

    0x00003800        -       0x00000000   Zero   RW           56    __FLASH_end.bss     anon$$obj.o



  Load Region LOAD_REGION_OPTION_SETTING_OFS0 (Base: 0x0100a100, Size: 0x00000004, Max: 0x00000004, ABSOLUTE)

    Execution Region __OPTION_SETTING_OFS0_start (Exec base: 0x0100a100, Load base: 0x0100a100, Size: 0x00000000, Max: 0x00000000, ABSOLUTE)

    Exec Addr    Load Addr    Size         Type   Attr      Idx    E Section Name        Object

    0x0100a100        -       0x00000000   Zero   RW           57    __OPTION_SETTING_OFS0_start.bss  anon$$obj.o


    Execution Region __OPTION_SETTING_OFS0_init (Exec base: 0x0100a100, Load base: 0x0100a100, Size: 0x00000000, Max: 0x00000000, ABSOLUTE)

    Exec Addr    Load Addr    Size         Type   Attr      Idx    E Section Name        Object

    0x0100a100        -       0x00000000   Zero   RW           58    __OPTION_SETTING_OFS0_init.bss  anon$$obj.o


    Execution Region __ddsc_OPTION_SETTING_OFS0_START (Exec base: 0x0100a100, Load base: 0x0100a100, Size: 0x00000000, Max: 0x00000000, ABSOLUTE)

    Exec Addr    Load Addr    Size         Type   Attr      Idx    E Section Name        Object

    0x0100a100        -       0x00000000   Zero   RW           59    __ddsc_OPTION_SETTING_OFS0_START.bss  anon$$obj.o


    Execution Region .option_setting_ofs0.startof (Exec base: 0x0100a100, Load base: 0x0100a100, Size: 0x00000000, Max: 0x00000000, ABSOLUTE)

    Exec Addr    Load Addr    Size         Type   Attr      Idx    E Section Name        Object

    0x0100a100        -       0x00000000   Zero   RW           60    .option_setting_ofs0.startof.bss  anon$$obj.o


    Execution Region __option_setting_ofs0_reg (Exec base: 0x0100a100, Load base: 0x0100a100, Size: 0x00000004, Max: 0xffffffff, ABSOLUTE, FIXED)

    Exec Addr    Load Addr    Size         Type   Attr      Idx    E Section Name        Object

    0x0100a100   0x0100a100   0x00000004   Data   RO          394    .option_setting_ofs0  bsp_linker.o


    Execution Region __ddsc_OPTION_SETTING_OFS0_END (Exec base: 0x0100a104, Load base: 0x0100a104, Size: 0x00000000, Max: 0x00000000, ABSOLUTE)

    Exec Addr    Load Addr    Size         Type   Attr      Idx    E Section Name        Object

    0x0100a104        -       0x00000000   Zero   RW           61    __ddsc_OPTION_SETTING_OFS0_END.bss  anon$$obj.o


    Execution Region .option_setting_ofs0.endof (Exec base: 0x0100a104, Load base: 0x0100a104, Size: 0x00000000, Max: 0x00000000, ABSOLUTE)

    Exec Addr    Load Addr    Size         Type   Attr      Idx    E Section Name        Object

    0x0100a104        -       0x00000000   Zero   RW           62    .option_setting_ofs0.endof.bss  anon$$obj.o


    Execution Region __OPTION_SETTING_OFS0_end (Exec base: 0x0100a104, Load base: 0x0100a104, Size: 0x00000000, Max: 0x00000000, ABSOLUTE)

    Exec Addr    Load Addr    Size         Type   Attr      Idx    E Section Name        Object

    0x0100a104        -       0x00000000   Zero   RW           63    __OPTION_SETTING_OFS0_end.bss  anon$$obj.o



  Load Region LOAD_REGION_OPTION_SETTING_DUALSEL (Base: 0x0100a110, Size: 0x00000000, Max: 0x00000004, ABSOLUTE)

    Execution Region __OPTION_SETTING_DUALSEL_start (Exec base: 0x0100a110, Load base: 0x0100a110, Size: 0x00000000, Max: 0x00000000, ABSOLUTE)

    Exec Addr    Load Addr    Size         Type   Attr      Idx    E Section Name        Object

    0x0100a110        -       0x00000000   Zero   RW           64    __OPTION_SETTING_DUALSEL_start.bss  anon$$obj.o


    Execution Region __OPTION_SETTING_DUALSEL_init (Exec base: 0x0100a110, Load base: 0x0100a110, Size: 0x00000000, Max: 0x00000000, ABSOLUTE)

    Exec Addr    Load Addr    Size         Type   Attr      Idx    E Section Name        Object

    0x0100a110        -       0x00000000   Zero   RW           65    __OPTION_SETTING_DUALSEL_init.bss  anon$$obj.o


    Execution Region __ddsc_OPTION_SETTING_DUALSEL_START (Exec base: 0x0100a110, Load base: 0x0100a110, Size: 0x00000000, Max: 0x00000000, ABSOLUTE)

    Exec Addr    Load Addr    Size         Type   Attr      Idx    E Section Name        Object

    0x0100a110        -       0x00000000   Zero   RW           66    __ddsc_OPTION_SETTING_DUALSEL_START.bss  anon$$obj.o


    Execution Region .option_setting_dualsel.startof (Exec base: 0x0100a110, Load base: 0x0100a110, Size: 0x00000000, Max: 0x00000000, ABSOLUTE)

    Exec Addr    Load Addr    Size         Type   Attr      Idx    E Section Name        Object

    0x0100a110        -       0x00000000   Zero   RW           67    .option_setting_dualsel.startof.bss  anon$$obj.o


    Execution Region __option_setting_dualsel_reg (Exec base: 0x0100a110, Load base: 0x0100a110, Size: 0x00000000, Max: 0xffffffff, ABSOLUTE, FIXED)

    **** No section assigned to this execution region ****


    Execution Region __ddsc_OPTION_SETTING_DUALSEL_END (Exec base: 0x0100a110, Load base: 0x0100a110, Size: 0x00000000, Max: 0x00000000, ABSOLUTE)

    Exec Addr    Load Addr    Size         Type   Attr      Idx    E Section Name        Object

    0x0100a110        -       0x00000000   Zero   RW           68    __ddsc_OPTION_SETTING_DUALSEL_END.bss  anon$$obj.o


    Execution Region .option_setting_dualsel.endof (Exec base: 0x0100a110, Load base: 0x0100a110, Size: 0x00000000, Max: 0x00000000, ABSOLUTE)

    Exec Addr    Load Addr    Size         Type   Attr      Idx    E Section Name        Object

    0x0100a110        -       0x00000000   Zero   RW           69    .option_setting_dualsel.endof.bss  anon$$obj.o


    Execution Region __OPTION_SETTING_DUALSEL_end (Exec base: 0x0100a110, Load base: 0x0100a110, Size: 0x00000000, Max: 0x00000000, ABSOLUTE)

    Exec Addr    Load Addr    Size         Type   Attr      Idx    E Section Name        Object

    0x0100a110        -       0x00000000   Zero   RW           70    __OPTION_SETTING_DUALSEL_end.bss  anon$$obj.o



  Load Region LOAD_REGION_OPTION_SETTING_OFS1 (Base: 0x0100a180, Size: 0x00000000, Max: 0x00000004, ABSOLUTE)

    Execution Region __OPTION_SETTING_OFS1_start (Exec base: 0x0100a180, Load base: 0x0100a180, Size: 0x00000000, Max: 0x00000000, ABSOLUTE)

    Exec Addr    Load Addr    Size         Type   Attr      Idx    E Section Name        Object

    0x0100a180        -       0x00000000   Zero   RW           71    __OPTION_SETTING_OFS1_start.bss  anon$$obj.o


    Execution Region __OPTION_SETTING_OFS1_init (Exec base: 0x0100a180, Load base: 0x0100a180, Size: 0x00000000, Max: 0x00000000, ABSOLUTE)

    Exec Addr    Load Addr    Size         Type   Attr      Idx    E Section Name        Object

    0x0100a180        -       0x00000000   Zero   RW           72    __OPTION_SETTING_OFS1_init.bss  anon$$obj.o


    Execution Region __ddsc_OPTION_SETTING_OFS1_START (Exec base: 0x0100a180, Load base: 0x0100a180, Size: 0x00000000, Max: 0x00000000, ABSOLUTE)

    Exec Addr    Load Addr    Size         Type   Attr      Idx    E Section Name        Object

    0x0100a180        -       0x00000000   Zero   RW           73    __ddsc_OPTION_SETTING_OFS1_START.bss  anon$$obj.o


    Execution Region .option_setting_ofs1.startof (Exec base: 0x0100a180, Load base: 0x0100a180, Size: 0x00000000, Max: 0x00000000, ABSOLUTE)

    Exec Addr    Load Addr    Size         Type   Attr      Idx    E Section Name        Object

    0x0100a180        -       0x00000000   Zero   RW           74    .option_setting_ofs1.startof.bss  anon$$obj.o


    Execution Region __option_setting_ofs1_reg (Exec base: 0x0100a180, Load base: 0x0100a180, Size: 0x00000000, Max: 0xffffffff, ABSOLUTE, FIXED)

    **** No section assigned to this execution region ****


    Execution Region __ddsc_OPTION_SETTING_OFS1_END (Exec base: 0x0100a180, Load base: 0x0100a180, Size: 0x00000000, Max: 0x00000000, ABSOLUTE)

    Exec Addr    Load Addr    Size         Type   Attr      Idx    E Section Name        Object

    0x0100a180        -       0x00000000   Zero   RW           75    __ddsc_OPTION_SETTING_OFS1_END.bss  anon$$obj.o


    Execution Region .option_setting_ofs1.endof (Exec base: 0x0100a180, Load base: 0x0100a180, Size: 0x00000000, Max: 0x00000000, ABSOLUTE)

    Exec Addr    Load Addr    Size         Type   Attr      Idx    E Section Name        Object

    0x0100a180        -       0x00000000   Zero   RW           76    .option_setting_ofs1.endof.bss  anon$$obj.o


    Execution Region __OPTION_SETTING_OFS1_end (Exec base: 0x0100a180, Load base: 0x0100a180, Size: 0x00000000, Max: 0x00000000, ABSOLUTE)

    Exec Addr    Load Addr    Size         Type   Attr      Idx    E Section Name        Object

    0x0100a180        -       0x00000000   Zero   RW           77    __OPTION_SETTING_OFS1_end.bss  anon$$obj.o



  Load Region LOAD_REGION_OPTION_SETTING_BANKSEL (Base: 0x0100a190, Size: 0x00000000, Max: 0x00000004, ABSOLUTE)

    Execution Region __OPTION_SETTING_BANKSEL_start (Exec base: 0x0100a190, Load base: 0x0100a190, Size: 0x00000000, Max: 0x00000000, ABSOLUTE)

    Exec Addr    Load Addr    Size         Type   Attr      Idx    E Section Name        Object

    0x0100a190        -       0x00000000   Zero   RW           78    __OPTION_SETTING_BANKSEL_start.bss  anon$$obj.o


    Execution Region __OPTION_SETTING_BANKSEL_init (Exec base: 0x0100a190, Load base: 0x0100a190, Size: 0x00000000, Max: 0x00000000, ABSOLUTE)

    Exec Addr    Load Addr    Size         Type   Attr      Idx    E Section Name        Object

    0x0100a190        -       0x00000000   Zero   RW           79    __OPTION_SETTING_BANKSEL_init.bss  anon$$obj.o


    Execution Region __ddsc_OPTION_SETTING_BANKSEL_START (Exec base: 0x0100a190, Load base: 0x0100a190, Size: 0x00000000, Max: 0x00000000, ABSOLUTE)

    Exec Addr    Load Addr    Size         Type   Attr      Idx    E Section Name        Object

    0x0100a190        -       0x00000000   Zero   RW           80    __ddsc_OPTION_SETTING_BANKSEL_START.bss  anon$$obj.o


    Execution Region .option_setting_banksel.startof (Exec base: 0x0100a190, Load base: 0x0100a190, Size: 0x00000000, Max: 0x00000000, ABSOLUTE)

    Exec Addr    Load Addr    Size         Type   Attr      Idx    E Section Name        Object

    0x0100a190        -       0x00000000   Zero   RW           81    .option_setting_banksel.startof.bss  anon$$obj.o


    Execution Region __option_setting_banksel_reg (Exec base: 0x0100a190, Load base: 0x0100a190, Size: 0x00000000, Max: 0xffffffff, ABSOLUTE, FIXED)

    **** No section assigned to this execution region ****


    Execution Region __ddsc_OPTION_SETTING_BANKSEL_END (Exec base: 0x0100a190, Load base: 0x0100a190, Size: 0x00000000, Max: 0x00000000, ABSOLUTE)

    Exec Addr    Load Addr    Size         Type   Attr      Idx    E Section Name        Object

    0x0100a190        -       0x00000000   Zero   RW           82    __ddsc_OPTION_SETTING_BANKSEL_END.bss  anon$$obj.o


    Execution Region .option_setting_banksel.endof (Exec base: 0x0100a190, Load base: 0x0100a190, Size: 0x00000000, Max: 0x00000000, ABSOLUTE)

    Exec Addr    Load Addr    Size         Type   Attr      Idx    E Section Name        Object

    0x0100a190        -       0x00000000   Zero   RW           83    .option_setting_banksel.endof.bss  anon$$obj.o


    Execution Region __OPTION_SETTING_BANKSEL_end (Exec base: 0x0100a190, Load base: 0x0100a190, Size: 0x00000000, Max: 0x00000000, ABSOLUTE)

    Exec Addr    Load Addr    Size         Type   Attr      Idx    E Section Name        Object

    0x0100a190        -       0x00000000   Zero   RW           84    __OPTION_SETTING_BANKSEL_end.bss  anon$$obj.o



  Load Region LOAD_REGION_OPTION_SETTING_BPS (Base: 0x0100a1c0, Size: 0x00000000, Max: 0x00000010, ABSOLUTE)

    Execution Region __OPTION_SETTING_BPS_start (Exec base: 0x0100a1c0, Load base: 0x0100a1c0, Size: 0x00000000, Max: 0x00000000, ABSOLUTE)

    Exec Addr    Load Addr    Size         Type   Attr      Idx    E Section Name        Object

    0x0100a1c0        -       0x00000000   Zero   RW           85    __OPTION_SETTING_BPS_start.bss  anon$$obj.o


    Execution Region __OPTION_SETTING_BPS_init (Exec base: 0x0100a1c0, Load base: 0x0100a1c0, Size: 0x00000000, Max: 0x00000000, ABSOLUTE)

    Exec Addr    Load Addr    Size         Type   Attr      Idx    E Section Name        Object

    0x0100a1c0        -       0x00000000   Zero   RW           86    __OPTION_SETTING_BPS_init.bss  anon$$obj.o


    Execution Region __ddsc_OPTION_SETTING_BPS_START (Exec base: 0x0100a1c0, Load base: 0x0100a1c0, Size: 0x00000000, Max: 0x00000000, ABSOLUTE)

    Exec Addr    Load Addr    Size         Type   Attr      Idx    E Section Name        Object

    0x0100a1c0        -       0x00000000   Zero   RW           87    __ddsc_OPTION_SETTING_BPS_START.bss  anon$$obj.o


    Execution Region .option_setting_bps.startof (Exec base: 0x0100a1c0, Load base: 0x0100a1c0, Size: 0x00000000, Max: 0x00000000, ABSOLUTE)

    Exec Addr    Load Addr    Size         Type   Attr      Idx    E Section Name        Object

    0x0100a1c0        -       0x00000000   Zero   RW           88    .option_setting_bps.startof.bss  anon$$obj.o


    Execution Region __option_setting_bps_reg (Exec base: 0x0100a1c0, Load base: 0x0100a1c0, Size: 0x00000000, Max: 0xffffffff, ABSOLUTE, FIXED)

    **** No section assigned to this execution region ****


    Execution Region __ddsc_OPTION_SETTING_BPS_END (Exec base: 0x0100a1c0, Load base: 0x0100a1c0, Size: 0x00000000, Max: 0x00000000, ABSOLUTE)

    Exec Addr    Load Addr    Size         Type   Attr      Idx    E Section Name        Object

    0x0100a1c0        -       0x00000000   Zero   RW           89    __ddsc_OPTION_SETTING_BPS_END.bss  anon$$obj.o


    Execution Region .option_setting_bps.endof (Exec base: 0x0100a1c0, Load base: 0x0100a1c0, Size: 0x00000000, Max: 0x00000000, ABSOLUTE)

    Exec Addr    Load Addr    Size         Type   Attr      Idx    E Section Name        Object

    0x0100a1c0        -       0x00000000   Zero   RW           90    .option_setting_bps.endof.bss  anon$$obj.o


    Execution Region __OPTION_SETTING_BPS_end (Exec base: 0x0100a1c0, Load base: 0x0100a1c0, Size: 0x00000000, Max: 0x00000000, ABSOLUTE)

    Exec Addr    Load Addr    Size         Type   Attr      Idx    E Section Name        Object

    0x0100a1c0        -       0x00000000   Zero   RW           91    __OPTION_SETTING_BPS_end.bss  anon$$obj.o



  Load Region LOAD_REGION_OPTION_SETTING_PBPS (Base: 0x0100a1e0, Size: 0x00000000, Max: 0x00000010, ABSOLUTE)

    Execution Region __OPTION_SETTING_PBPS_start (Exec base: 0x0100a1e0, Load base: 0x0100a1e0, Size: 0x00000000, Max: 0x00000000, ABSOLUTE)

    Exec Addr    Load Addr    Size         Type   Attr      Idx    E Section Name        Object

    0x0100a1e0        -       0x00000000   Zero   RW           92    __OPTION_SETTING_PBPS_start.bss  anon$$obj.o


    Execution Region __OPTION_SETTING_PBPS_init (Exec base: 0x0100a1e0, Load base: 0x0100a1e0, Size: 0x00000000, Max: 0x00000000, ABSOLUTE)

    Exec Addr    Load Addr    Size         Type   Attr      Idx    E Section Name        Object

    0x0100a1e0        -       0x00000000   Zero   RW           93    __OPTION_SETTING_PBPS_init.bss  anon$$obj.o


    Execution Region __ddsc_OPTION_SETTING_PBPS_START (Exec base: 0x0100a1e0, Load base: 0x0100a1e0, Size: 0x00000000, Max: 0x00000000, ABSOLUTE)

    Exec Addr    Load Addr    Size         Type   Attr      Idx    E Section Name        Object

    0x0100a1e0        -       0x00000000   Zero   RW           94    __ddsc_OPTION_SETTING_PBPS_START.bss  anon$$obj.o


    Execution Region .option_setting_pbps.startof (Exec base: 0x0100a1e0, Load base: 0x0100a1e0, Size: 0x00000000, Max: 0x00000000, ABSOLUTE)

    Exec Addr    Load Addr    Size         Type   Attr      Idx    E Section Name        Object

    0x0100a1e0        -       0x00000000   Zero   RW           95    .option_setting_pbps.startof.bss  anon$$obj.o


    Execution Region __option_setting_pbps_reg (Exec base: 0x0100a1e0, Load base: 0x0100a1e0, Size: 0x00000000, Max: 0xffffffff, ABSOLUTE, FIXED)

    **** No section assigned to this execution region ****


    Execution Region __ddsc_OPTION_SETTING_PBPS_END (Exec base: 0x0100a1e0, Load base: 0x0100a1e0, Size: 0x00000000, Max: 0x00000000, ABSOLUTE)

    Exec Addr    Load Addr    Size         Type   Attr      Idx    E Section Name        Object

    0x0100a1e0        -       0x00000000   Zero   RW           96    __ddsc_OPTION_SETTING_PBPS_END.bss  anon$$obj.o


    Execution Region .option_setting_pbps.endof (Exec base: 0x0100a1e0, Load base: 0x0100a1e0, Size: 0x00000000, Max: 0x00000000, ABSOLUTE)

    Exec Addr    Load Addr    Size         Type   Attr      Idx    E Section Name        Object

    0x0100a1e0        -       0x00000000   Zero   RW           97    .option_setting_pbps.endof.bss  anon$$obj.o


    Execution Region __OPTION_SETTING_PBPS_end (Exec base: 0x0100a1e0, Load base: 0x0100a1e0, Size: 0x00000000, Max: 0x00000000, ABSOLUTE)

    Exec Addr    Load Addr    Size         Type   Attr      Idx    E Section Name        Object

    0x0100a1e0        -       0x00000000   Zero   RW           98    __OPTION_SETTING_PBPS_end.bss  anon$$obj.o



  Load Region LOAD_REGION_OPTION_SETTING_OFS1_SEC (Base: 0x0100a200, Size: 0x00000004, Max: 0x00000004, ABSOLUTE)

    Execution Region __OPTION_SETTING_OFS1_SEC_start (Exec base: 0x0100a200, Load base: 0x0100a200, Size: 0x00000000, Max: 0x00000000, ABSOLUTE)

    Exec Addr    Load Addr    Size         Type   Attr      Idx    E Section Name        Object

    0x0100a200        -       0x00000000   Zero   RW           99    __OPTION_SETTING_OFS1_SEC_start.bss  anon$$obj.o


    Execution Region __OPTION_SETTING_OFS1_SEC_init (Exec base: 0x0100a200, Load base: 0x0100a200, Size: 0x00000000, Max: 0x00000000, ABSOLUTE)

    Exec Addr    Load Addr    Size         Type   Attr      Idx    E Section Name        Object

    0x0100a200        -       0x00000000   Zero   RW          100    __OPTION_SETTING_OFS1_SEC_init.bss  anon$$obj.o


    Execution Region __ddsc_OPTION_SETTING_OFS1_SEC_START (Exec base: 0x0100a200, Load base: 0x0100a200, Size: 0x00000000, Max: 0x00000000, ABSOLUTE)

    Exec Addr    Load Addr    Size         Type   Attr      Idx    E Section Name        Object

    0x0100a200        -       0x00000000   Zero   RW          101    __ddsc_OPTION_SETTING_OFS1_SEC_START.bss  anon$$obj.o


    Execution Region .option_setting_ofs1_sec.startof (Exec base: 0x0100a200, Load base: 0x0100a200, Size: 0x00000000, Max: 0x00000000, ABSOLUTE)

    Exec Addr    Load Addr    Size         Type   Attr      Idx    E Section Name        Object

    0x0100a200        -       0x00000000   Zero   RW          102    .option_setting_ofs1_sec.startof.bss  anon$$obj.o


    Execution Region __option_setting_ofs1_sec_reg (Exec base: 0x0100a200, Load base: 0x0100a200, Size: 0x00000004, Max: 0xffffffff, ABSOLUTE, FIXED)

    Exec Addr    Load Addr    Size         Type   Attr      Idx    E Section Name        Object

    0x0100a200   0x0100a200   0x00000004   Data   RO          395    .option_setting_ofs1_sec  bsp_linker.o


    Execution Region __ddsc_OPTION_SETTING_OFS1_SEC_END (Exec base: 0x0100a204, Load base: 0x0100a204, Size: 0x00000000, Max: 0x00000000, ABSOLUTE)

    Exec Addr    Load Addr    Size         Type   Attr      Idx    E Section Name        Object

    0x0100a204        -       0x00000000   Zero   RW          103    __ddsc_OPTION_SETTING_OFS1_SEC_END.bss  anon$$obj.o


    Execution Region .option_setting_ofs1_sec.endof (Exec base: 0x0100a204, Load base: 0x0100a204, Size: 0x00000000, Max: 0x00000000, ABSOLUTE)

    Exec Addr    Load Addr    Size         Type   Attr      Idx    E Section Name        Object

    0x0100a204        -       0x00000000   Zero   RW          104    .option_setting_ofs1_sec.endof.bss  anon$$obj.o


    Execution Region __OPTION_SETTING_OFS1_SEC_end (Exec base: 0x0100a204, Load base: 0x0100a204, Size: 0x00000000, Max: 0x00000000, ABSOLUTE)

    Exec Addr    Load Addr    Size         Type   Attr      Idx    E Section Name        Object

    0x0100a204        -       0x00000000   Zero   RW          105    __OPTION_SETTING_OFS1_SEC_end.bss  anon$$obj.o



  Load Region LOAD_REGION_OPTION_SETTING_BANKSEL_SEC (Base: 0x0100a210, Size: 0x00000000, Max: 0x00000004, ABSOLUTE)

    Execution Region __OPTION_SETTING_BANKSEL_SEC_start (Exec base: 0x0100a210, Load base: 0x0100a210, Size: 0x00000000, Max: 0x00000000, ABSOLUTE)

    Exec Addr    Load Addr    Size         Type   Attr      Idx    E Section Name        Object

    0x0100a210        -       0x00000000   Zero   RW          106    __OPTION_SETTING_BANKSEL_SEC_start.bss  anon$$obj.o


    Execution Region __OPTION_SETTING_BANKSEL_SEC_init (Exec base: 0x0100a210, Load base: 0x0100a210, Size: 0x00000000, Max: 0x00000000, ABSOLUTE)

    Exec Addr    Load Addr    Size         Type   Attr      Idx    E Section Name        Object

    0x0100a210        -       0x00000000   Zero   RW          107    __OPTION_SETTING_BANKSEL_SEC_init.bss  anon$$obj.o


    Execution Region __ddsc_OPTION_SETTING_BANKSEL_SEC_START (Exec base: 0x0100a210, Load base: 0x0100a210, Size: 0x00000000, Max: 0x00000000, ABSOLUTE)

    Exec Addr    Load Addr    Size         Type   Attr      Idx    E Section Name        Object

    0x0100a210        -       0x00000000   Zero   RW          108    __ddsc_OPTION_SETTING_BANKSEL_SEC_START.bss  anon$$obj.o


    Execution Region .option_setting_banksel_sec.startof (Exec base: 0x0100a210, Load base: 0x0100a210, Size: 0x00000000, Max: 0x00000000, ABSOLUTE)

    Exec Addr    Load Addr    Size         Type   Attr      Idx    E Section Name        Object

    0x0100a210        -       0x00000000   Zero   RW          109    .option_setting_banksel_sec.startof.bss  anon$$obj.o


    Execution Region __option_setting_banksel_sec_reg (Exec base: 0x0100a210, Load base: 0x0100a210, Size: 0x00000000, Max: 0xffffffff, ABSOLUTE, FIXED)

    **** No section assigned to this execution region ****


    Execution Region __ddsc_OPTION_SETTING_BANKSEL_SEC_END (Exec base: 0x0100a210, Load base: 0x0100a210, Size: 0x00000000, Max: 0x00000000, ABSOLUTE)

    Exec Addr    Load Addr    Size         Type   Attr      Idx    E Section Name        Object

    0x0100a210        -       0x00000000   Zero   RW          110    __ddsc_OPTION_SETTING_BANKSEL_SEC_END.bss  anon$$obj.o


    Execution Region .option_setting_banksel_sec.endof (Exec base: 0x0100a210, Load base: 0x0100a210, Size: 0x00000000, Max: 0x00000000, ABSOLUTE)

    Exec Addr    Load Addr    Size         Type   Attr      Idx    E Section Name        Object

    0x0100a210        -       0x00000000   Zero   RW          111    .option_setting_banksel_sec.endof.bss  anon$$obj.o


    Execution Region __OPTION_SETTING_BANKSEL_SEC_end (Exec base: 0x0100a210, Load base: 0x0100a210, Size: 0x00000000, Max: 0x00000000, ABSOLUTE)

    Exec Addr    Load Addr    Size         Type   Attr      Idx    E Section Name        Object

    0x0100a210        -       0x00000000   Zero   RW          112    __OPTION_SETTING_BANKSEL_SEC_end.bss  anon$$obj.o



  Load Region LOAD_REGION_OPTION_SETTING_BPS_SEC (Base: 0x0100a240, Size: 0x00000000, Max: 0x00000010, ABSOLUTE)

    Execution Region __OPTION_SETTING_BPS_SEC_start (Exec base: 0x0100a240, Load base: 0x0100a240, Size: 0x00000000, Max: 0x00000000, ABSOLUTE)

    Exec Addr    Load Addr    Size         Type   Attr      Idx    E Section Name        Object

    0x0100a240        -       0x00000000   Zero   RW          113    __OPTION_SETTING_BPS_SEC_start.bss  anon$$obj.o


    Execution Region __OPTION_SETTING_BPS_SEC_init (Exec base: 0x0100a240, Load base: 0x0100a240, Size: 0x00000000, Max: 0x00000000, ABSOLUTE)

    Exec Addr    Load Addr    Size         Type   Attr      Idx    E Section Name        Object

    0x0100a240        -       0x00000000   Zero   RW          114    __OPTION_SETTING_BPS_SEC_init.bss  anon$$obj.o


    Execution Region __ddsc_OPTION_SETTING_BPS_SEC_START (Exec base: 0x0100a240, Load base: 0x0100a240, Size: 0x00000000, Max: 0x00000000, ABSOLUTE)

    Exec Addr    Load Addr    Size         Type   Attr      Idx    E Section Name        Object

    0x0100a240        -       0x00000000   Zero   RW          115    __ddsc_OPTION_SETTING_BPS_SEC_START.bss  anon$$obj.o


    Execution Region .option_setting_bps_sec.startof (Exec base: 0x0100a240, Load base: 0x0100a240, Size: 0x00000000, Max: 0x00000000, ABSOLUTE)

    Exec Addr    Load Addr    Size         Type   Attr      Idx    E Section Name        Object

    0x0100a240        -       0x00000000   Zero   RW          116    .option_setting_bps_sec.startof.bss  anon$$obj.o


    Execution Region __option_setting_bps_sec_reg (Exec base: 0x0100a240, Load base: 0x0100a240, Size: 0x00000000, Max: 0xffffffff, ABSOLUTE, FIXED)

    **** No section assigned to this execution region ****


    Execution Region __ddsc_OPTION_SETTING_BPS_SEC_END (Exec base: 0x0100a240, Load base: 0x0100a240, Size: 0x00000000, Max: 0x00000000, ABSOLUTE)

    Exec Addr    Load Addr    Size         Type   Attr      Idx    E Section Name        Object

    0x0100a240        -       0x00000000   Zero   RW          117    __ddsc_OPTION_SETTING_BPS_SEC_END.bss  anon$$obj.o


    Execution Region .option_setting_bps_sec.endof (Exec base: 0x0100a240, Load base: 0x0100a240, Size: 0x00000000, Max: 0x00000000, ABSOLUTE)

    Exec Addr    Load Addr    Size         Type   Attr      Idx    E Section Name        Object

    0x0100a240        -       0x00000000   Zero   RW          118    .option_setting_bps_sec.endof.bss  anon$$obj.o


    Execution Region __OPTION_SETTING_BPS_SEC_end (Exec base: 0x0100a240, Load base: 0x0100a240, Size: 0x00000000, Max: 0x00000000, ABSOLUTE)

    Exec Addr    Load Addr    Size         Type   Attr      Idx    E Section Name        Object

    0x0100a240        -       0x00000000   Zero   RW          119    __OPTION_SETTING_BPS_SEC_end.bss  anon$$obj.o



  Load Region LOAD_REGION_OPTION_SETTING_PBPS_SEC (Base: 0x0100a260, Size: 0x00000000, Max: 0x00000010, ABSOLUTE)

    Execution Region __OPTION_SETTING_PBPS_SEC_start (Exec base: 0x0100a260, Load base: 0x0100a260, Size: 0x00000000, Max: 0x00000000, ABSOLUTE)

    Exec Addr    Load Addr    Size         Type   Attr      Idx    E Section Name        Object

    0x0100a260        -       0x00000000   Zero   RW          120    __OPTION_SETTING_PBPS_SEC_start.bss  anon$$obj.o


    Execution Region __OPTION_SETTING_PBPS_SEC_init (Exec base: 0x0100a260, Load base: 0x0100a260, Size: 0x00000000, Max: 0x00000000, ABSOLUTE)

    Exec Addr    Load Addr    Size         Type   Attr      Idx    E Section Name        Object

    0x0100a260        -       0x00000000   Zero   RW          121    __OPTION_SETTING_PBPS_SEC_init.bss  anon$$obj.o


    Execution Region __ddsc_OPTION_SETTING_PBPS_SEC_START (Exec base: 0x0100a260, Load base: 0x0100a260, Size: 0x00000000, Max: 0x00000000, ABSOLUTE)

    Exec Addr    Load Addr    Size         Type   Attr      Idx    E Section Name        Object

    0x0100a260        -       0x00000000   Zero   RW          122    __ddsc_OPTION_SETTING_PBPS_SEC_START.bss  anon$$obj.o


    Execution Region .option_setting_pbps_sec.startof (Exec base: 0x0100a260, Load base: 0x0100a260, Size: 0x00000000, Max: 0x00000000, ABSOLUTE)

    Exec Addr    Load Addr    Size         Type   Attr      Idx    E Section Name        Object

    0x0100a260        -       0x00000000   Zero   RW          123    .option_setting_pbps_sec.startof.bss  anon$$obj.o


    Execution Region __option_setting_pbps_sec_reg (Exec base: 0x0100a260, Load base: 0x0100a260, Size: 0x00000000, Max: 0xffffffff, ABSOLUTE, FIXED)

    **** No section assigned to this execution region ****


    Execution Region __ddsc_OPTION_SETTING_PBPS_SEC_END (Exec base: 0x0100a260, Load base: 0x0100a260, Size: 0x00000000, Max: 0x00000000, ABSOLUTE)

    Exec Addr    Load Addr    Size         Type   Attr      Idx    E Section Name        Object

    0x0100a260        -       0x00000000   Zero   RW          124    __ddsc_OPTION_SETTING_PBPS_SEC_END.bss  anon$$obj.o


    Execution Region .option_setting_pbps_sec.endof (Exec base: 0x0100a260, Load base: 0x0100a260, Size: 0x00000000, Max: 0x00000000, ABSOLUTE)

    Exec Addr    Load Addr    Size         Type   Attr      Idx    E Section Name        Object

    0x0100a260        -       0x00000000   Zero   RW          125    .option_setting_pbps_sec.endof.bss  anon$$obj.o


    Execution Region __OPTION_SETTING_PBPS_SEC_end (Exec base: 0x0100a260, Load base: 0x0100a260, Size: 0x00000000, Max: 0x00000000, ABSOLUTE)

    Exec Addr    Load Addr    Size         Type   Attr      Idx    E Section Name        Object

    0x0100a260        -       0x00000000   Zero   RW          126    __OPTION_SETTING_PBPS_SEC_end.bss  anon$$obj.o



  Load Region LOAD_REGION_OPTION_SETTING_OFS1_SEL (Base: 0x0100a280, Size: 0x00000004, Max: 0x00000004, ABSOLUTE)

    Execution Region __OPTION_SETTING_OFS1_SEL_start (Exec base: 0x0100a280, Load base: 0x0100a280, Size: 0x00000000, Max: 0x00000000, ABSOLUTE)

    Exec Addr    Load Addr    Size         Type   Attr      Idx    E Section Name        Object

    0x0100a280        -       0x00000000   Zero   RW          127    __OPTION_SETTING_OFS1_SEL_start.bss  anon$$obj.o


    Execution Region __OPTION_SETTING_OFS1_SEL_init (Exec base: 0x0100a280, Load base: 0x0100a280, Size: 0x00000000, Max: 0x00000000, ABSOLUTE)

    Exec Addr    Load Addr    Size         Type   Attr      Idx    E Section Name        Object

    0x0100a280        -       0x00000000   Zero   RW          128    __OPTION_SETTING_OFS1_SEL_init.bss  anon$$obj.o


    Execution Region __ddsc_OPTION_SETTING_OFS1_SEL_START (Exec base: 0x0100a280, Load base: 0x0100a280, Size: 0x00000000, Max: 0x00000000, ABSOLUTE)

    Exec Addr    Load Addr    Size         Type   Attr      Idx    E Section Name        Object

    0x0100a280        -       0x00000000   Zero   RW          129    __ddsc_OPTION_SETTING_OFS1_SEL_START.bss  anon$$obj.o


    Execution Region .option_setting_ofs1_sel.startof (Exec base: 0x0100a280, Load base: 0x0100a280, Size: 0x00000000, Max: 0x00000000, ABSOLUTE)

    Exec Addr    Load Addr    Size         Type   Attr      Idx    E Section Name        Object

    0x0100a280        -       0x00000000   Zero   RW          130    .option_setting_ofs1_sel.startof.bss  anon$$obj.o


    Execution Region __option_setting_ofs1_sel_reg (Exec base: 0x0100a280, Load base: 0x0100a280, Size: 0x00000004, Max: 0xffffffff, ABSOLUTE, FIXED)

    Exec Addr    Load Addr    Size         Type   Attr      Idx    E Section Name        Object

    0x0100a280   0x0100a280   0x00000004   Data   RO          396    .option_setting_ofs1_sel  bsp_linker.o


    Execution Region __ddsc_OPTION_SETTING_OFS1_SEL_END (Exec base: 0x0100a284, Load base: 0x0100a284, Size: 0x00000000, Max: 0x00000000, ABSOLUTE)

    Exec Addr    Load Addr    Size         Type   Attr      Idx    E Section Name        Object

    0x0100a284        -       0x00000000   Zero   RW          131    __ddsc_OPTION_SETTING_OFS1_SEL_END.bss  anon$$obj.o


    Execution Region .option_setting_ofs1_sel.endof (Exec base: 0x0100a284, Load base: 0x0100a284, Size: 0x00000000, Max: 0x00000000, ABSOLUTE)

    Exec Addr    Load Addr    Size         Type   Attr      Idx    E Section Name        Object

    0x0100a284        -       0x00000000   Zero   RW          132    .option_setting_ofs1_sel.endof.bss  anon$$obj.o


    Execution Region __OPTION_SETTING_OFS1_SEL_end (Exec base: 0x0100a284, Load base: 0x0100a284, Size: 0x00000000, Max: 0x00000000, ABSOLUTE)

    Exec Addr    Load Addr    Size         Type   Attr      Idx    E Section Name        Object

    0x0100a284        -       0x00000000   Zero   RW          133    __OPTION_SETTING_OFS1_SEL_end.bss  anon$$obj.o



  Load Region LOAD_REGION_OPTION_SETTING_BANKSEL_SEL (Base: 0x0100a290, Size: 0x00000000, Max: 0x00000004, ABSOLUTE)

    Execution Region __OPTION_SETTING_BANKSEL_SEL_start (Exec base: 0x0100a290, Load base: 0x0100a290, Size: 0x00000000, Max: 0x00000000, ABSOLUTE)

    Exec Addr    Load Addr    Size         Type   Attr      Idx    E Section Name        Object

    0x0100a290        -       0x00000000   Zero   RW          134    __OPTION_SETTING_BANKSEL_SEL_start.bss  anon$$obj.o


    Execution Region __OPTION_SETTING_BANKSEL_SEL_init (Exec base: 0x0100a290, Load base: 0x0100a290, Size: 0x00000000, Max: 0x00000000, ABSOLUTE)

    Exec Addr    Load Addr    Size         Type   Attr      Idx    E Section Name        Object

    0x0100a290        -       0x00000000   Zero   RW          135    __OPTION_SETTING_BANKSEL_SEL_init.bss  anon$$obj.o


    Execution Region __ddsc_OPTION_SETTING_BANKSEL_SEL_START (Exec base: 0x0100a290, Load base: 0x0100a290, Size: 0x00000000, Max: 0x00000000, ABSOLUTE)

    Exec Addr    Load Addr    Size         Type   Attr      Idx    E Section Name        Object

    0x0100a290        -       0x00000000   Zero   RW          136    __ddsc_OPTION_SETTING_BANKSEL_SEL_START.bss  anon$$obj.o


    Execution Region .option_setting_banksel_sel.startof (Exec base: 0x0100a290, Load base: 0x0100a290, Size: 0x00000000, Max: 0x00000000, ABSOLUTE)

    Exec Addr    Load Addr    Size         Type   Attr      Idx    E Section Name        Object

    0x0100a290        -       0x00000000   Zero   RW          137    .option_setting_banksel_sel.startof.bss  anon$$obj.o


    Execution Region __option_setting_banksel_sel_reg (Exec base: 0x0100a290, Load base: 0x0100a290, Size: 0x00000000, Max: 0xffffffff, ABSOLUTE, FIXED)

    **** No section assigned to this execution region ****


    Execution Region __ddsc_OPTION_SETTING_BANKSEL_SEL_END (Exec base: 0x0100a290, Load base: 0x0100a290, Size: 0x00000000, Max: 0x00000000, ABSOLUTE)

    Exec Addr    Load Addr    Size         Type   Attr      Idx    E Section Name        Object

    0x0100a290        -       0x00000000   Zero   RW          138    __ddsc_OPTION_SETTING_BANKSEL_SEL_END.bss  anon$$obj.o


    Execution Region .option_setting_banksel_sel.endof (Exec base: 0x0100a290, Load base: 0x0100a290, Size: 0x00000000, Max: 0x00000000, ABSOLUTE)

    Exec Addr    Load Addr    Size         Type   Attr      Idx    E Section Name        Object

    0x0100a290        -       0x00000000   Zero   RW          139    .option_setting_banksel_sel.endof.bss  anon$$obj.o


    Execution Region __OPTION_SETTING_BANKSEL_SEL_end (Exec base: 0x0100a290, Load base: 0x0100a290, Size: 0x00000000, Max: 0x00000000, ABSOLUTE)

    Exec Addr    Load Addr    Size         Type   Attr      Idx    E Section Name        Object

    0x0100a290        -       0x00000000   Zero   RW          140    __OPTION_SETTING_BANKSEL_SEL_end.bss  anon$$obj.o



  Load Region LOAD_REGION_OPTION_SETTING_BPS_SEL (Base: 0x0100a2c0, Size: 0x00000000, Max: 0x00000010, ABSOLUTE)

    Execution Region __OPTION_SETTING_BPS_SEL_start (Exec base: 0x0100a2c0, Load base: 0x0100a2c0, Size: 0x00000000, Max: 0x00000000, ABSOLUTE)

    Exec Addr    Load Addr    Size         Type   Attr      Idx    E Section Name        Object

    0x0100a2c0        -       0x00000000   Zero   RW          141    __OPTION_SETTING_BPS_SEL_start.bss  anon$$obj.o


    Execution Region __OPTION_SETTING_BPS_SEL_init (Exec base: 0x0100a2c0, Load base: 0x0100a2c0, Size: 0x00000000, Max: 0x00000000, ABSOLUTE)

    Exec Addr    Load Addr    Size         Type   Attr      Idx    E Section Name        Object

    0x0100a2c0        -       0x00000000   Zero   RW          142    __OPTION_SETTING_BPS_SEL_init.bss  anon$$obj.o


    Execution Region __ddsc_OPTION_SETTING_BPS_SEL_START (Exec base: 0x0100a2c0, Load base: 0x0100a2c0, Size: 0x00000000, Max: 0x00000000, ABSOLUTE)

    Exec Addr    Load Addr    Size         Type   Attr      Idx    E Section Name        Object

    0x0100a2c0        -       0x00000000   Zero   RW          143    __ddsc_OPTION_SETTING_BPS_SEL_START.bss  anon$$obj.o


    Execution Region .option_setting_bps_sel.startof (Exec base: 0x0100a2c0, Load base: 0x0100a2c0, Size: 0x00000000, Max: 0x00000000, ABSOLUTE)

    Exec Addr    Load Addr    Size         Type   Attr      Idx    E Section Name        Object

    0x0100a2c0        -       0x00000000   Zero   RW          144    .option_setting_bps_sel.startof.bss  anon$$obj.o


    Execution Region __option_setting_bps_sel_reg (Exec base: 0x0100a2c0, Load base: 0x0100a2c0, Size: 0x00000000, Max: 0xffffffff, ABSOLUTE, FIXED)

    **** No section assigned to this execution region ****


    Execution Region __ddsc_OPTION_SETTING_BPS_SEL_END (Exec base: 0x0100a2c0, Load base: 0x0100a2c0, Size: 0x00000000, Max: 0x00000000, ABSOLUTE)

    Exec Addr    Load Addr    Size         Type   Attr      Idx    E Section Name        Object

    0x0100a2c0        -       0x00000000   Zero   RW          145    __ddsc_OPTION_SETTING_BPS_SEL_END.bss  anon$$obj.o


    Execution Region .option_setting_bps_sel.endof (Exec base: 0x0100a2c0, Load base: 0x0100a2c0, Size: 0x00000000, Max: 0x00000000, ABSOLUTE)

    Exec Addr    Load Addr    Size         Type   Attr      Idx    E Section Name        Object

    0x0100a2c0        -       0x00000000   Zero   RW          146    .option_setting_bps_sel.endof.bss  anon$$obj.o


    Execution Region __OPTION_SETTING_BPS_SEL_end (Exec base: 0x0100a2c0, Load base: 0x0100a2c0, Size: 0x00000000, Max: 0x00000000, ABSOLUTE)

    Exec Addr    Load Addr    Size         Type   Attr      Idx    E Section Name        Object

    0x0100a2c0        -       0x00000000   Zero   RW          147    __OPTION_SETTING_BPS_SEL_end.bss  anon$$obj.o


==============================================================================

Image component sizes


      Code (inc. data)   RO Data    RW Data    ZI Data      Debug   Object Name

       484          0          0          0         28      39255   bsp_clocks.o
         2          0         78          0          0      10060   bsp_common.o
       140          0          0          0          0       1873   bsp_delay.o
        68          0          0          0         64      14142   bsp_group_irq.o
         0          0          0          0          4        481   bsp_io.o
       138          0          0          0         88      18525   bsp_irq.o
         0          0        388          0          0       3588   bsp_linker.o
       160          0         10          0         10      21828   bsp_register_protection.o
         0          0          0          0          8      17853   common_data.o
       346          4          0          0          0      15852   driver_bh1750_1.o
       428          0          0          4          0      18951   driver_dht22_1.o
       132          0          0         60        256      15403   driver_uart_1.o
         0          0        634         20        312      35722   hal_data.o
      2306        148        638          0        895      27283   hal_entry_1.o
        26          0          0          0          0      16816   hal_warmstart_1.o
        10          0          0          0          0        411   main.o
         0          0        132          0          0       8016   pin_data.o
       682         12          0          0          0      57162   r_ioport.o
      1284          0         32          0          0      40094   r_sci_i2c.o
      1430          0          0          0          0      73252   r_sci_uart.o
        14          0         64          0       1024        951   startup.o
       252          0          0          0          4       6695   system.o
         0          0        176          0          0       9861   vector_data.o

    ----------------------------------------------------------------------
      7920        164       2160         84       2708     454074   Object Totals
         0          0          0          0          0          0   (incl. Generated)
        18          0          8          0         15          0   (incl. Padding)

    ----------------------------------------------------------------------

      Code (inc. data)   RO Data    RW Data    ZI Data      Debug   Library Member Name

         0          0          0          0          0          0   iusefp.o
        30          0          0          0          0         68   llshl.o
        36          0          0          0          0         68   llsshr.o
        32          0          0          0          0         68   llushr.o
        26          0          0          0          0         80   memcmp.o
        36          0          0          0          0         68   memcpya.o
        36          0          0          0          0        108   memseta.o
      2352         90          0          0          0        604   printfa.o
        44          0          0          0          0         80   uidiv.o
        98          0          0          0          0         92   uldiv.o
        48          0          0          0          0         68   cdrcmple.o
       334          0          0          0          0        148   dadd.o
       222          0          0          0          0        100   ddiv.o
       186          0          0          0          0        176   depilogue.o
        48          0          0          0          0         68   dfixul.o
       228          0          0          0          0         96   dmul.o
        38          0          0          0          0         68   f2d.o

    ----------------------------------------------------------------------
      3796         90          0          0          0       1960   Library Totals
         2          0          0          0          0          0   (incl. Padding)

    ----------------------------------------------------------------------

      Code (inc. data)   RO Data    RW Data    ZI Data      Debug   Library Name

      2690         90          0          0          0       1236   mc_w.l
      1104          0          0          0          0        724   mf_w.l

    ----------------------------------------------------------------------
      3796         90          0          0          0       1960   Library Totals

    ----------------------------------------------------------------------

==============================================================================


      Code (inc. data)   RO Data    RW Data    ZI Data      Debug   

     11716        254       2160         84       2708     454726   Grand Totals
     11716        254       2160         84       2708     454726   ELF Image Totals
     11716        254       2160         84          0          0   ROM Totals

==============================================================================

    Total RO  Size (Code + RO Data)                13876 (  13.55kB)
    Total RW  Size (RW Data + ZI Data)              2792 (   2.73kB)
    Total ROM Size (Code + RO Data + RW Data)      13960 (  13.63kB)

==============================================================================

